
output/addi.elf:     file format elf32-littleriscv


Disassembly of section .text.init:

00000000 <_start>:
   0:	00000093          	li	ra,0
   4:	00000113          	li	sp,0
   8:	00000193          	li	gp,0
   c:	00000213          	li	tp,0
  10:	00000293          	li	t0,0
  14:	00000313          	li	t1,0
  18:	00000393          	li	t2,0
  1c:	00000413          	li	s0,0
  20:	00000493          	li	s1,0
  24:	00000513          	li	a0,0
  28:	00000593          	li	a1,0
  2c:	00000613          	li	a2,0
  30:	00000693          	li	a3,0
  34:	00000713          	li	a4,0
  38:	00000793          	li	a5,0
  3c:	00000813          	li	a6,0
  40:	00000893          	li	a7,0
  44:	00000913          	li	s2,0
  48:	00000993          	li	s3,0
  4c:	00000a13          	li	s4,0
  50:	00000a93          	li	s5,0
  54:	00000b13          	li	s6,0
  58:	00000b93          	li	s7,0
  5c:	00000c13          	li	s8,0
  60:	00000c93          	li	s9,0
  64:	00000d13          	li	s10,0
  68:	00000d93          	li	s11,0
  6c:	00000e13          	li	t3,0
  70:	00000e93          	li	t4,0
  74:	00000f13          	li	t5,0
  78:	00000f93          	li	t6,0
  7c:	00002297          	auipc	t0,0x2
  80:	f8428293          	addi	t0,t0,-124 # 2000 <trap_vector>
  84:	30529073          	csrw	mtvec,t0
  88:	0040006f          	j	8c <reset_vector>

0000008c <reset_vector>:
  8c:	00000093          	li	ra,0
  90:	00008713          	mv	a4,ra
  94:	00000393          	li	t2,0
  98:	00200193          	li	gp,2
  9c:	26771c63          	bne	a4,t2,314 <fail>

000000a0 <test_3>:
  a0:	00100093          	li	ra,1
  a4:	00108713          	addi	a4,ra,1
  a8:	00200393          	li	t2,2
  ac:	00300193          	li	gp,3
  b0:	26771263          	bne	a4,t2,314 <fail>

000000b4 <test_4>:
  b4:	00300093          	li	ra,3
  b8:	00708713          	addi	a4,ra,7
  bc:	00a00393          	li	t2,10
  c0:	00400193          	li	gp,4
  c4:	24771863          	bne	a4,t2,314 <fail>

000000c8 <test_5>:
  c8:	00000093          	li	ra,0
  cc:	80008713          	addi	a4,ra,-2048
  d0:	80000393          	li	t2,-2048
  d4:	00500193          	li	gp,5
  d8:	22771e63          	bne	a4,t2,314 <fail>

000000dc <test_6>:
  dc:	800000b7          	lui	ra,0x80000
  e0:	00008713          	mv	a4,ra
  e4:	800003b7          	lui	t2,0x80000
  e8:	00600193          	li	gp,6
  ec:	22771463          	bne	a4,t2,314 <fail>

000000f0 <test_7>:
  f0:	800000b7          	lui	ra,0x80000
  f4:	80008713          	addi	a4,ra,-2048 # 7ffff800 <_end+0x7fffc800>
  f8:	800003b7          	lui	t2,0x80000
  fc:	80038393          	addi	t2,t2,-2048 # 7ffff800 <_end+0x7fffc800>
 100:	00700193          	li	gp,7
 104:	20771863          	bne	a4,t2,314 <fail>

00000108 <test_8>:
 108:	00000093          	li	ra,0
 10c:	7ff08713          	addi	a4,ra,2047
 110:	7ff00393          	li	t2,2047
 114:	00800193          	li	gp,8
 118:	1e771e63          	bne	a4,t2,314 <fail>

0000011c <test_9>:
 11c:	800000b7          	lui	ra,0x80000
 120:	fff08093          	addi	ra,ra,-1 # 7fffffff <_end+0x7fffcfff>
 124:	00008713          	mv	a4,ra
 128:	800003b7          	lui	t2,0x80000
 12c:	fff38393          	addi	t2,t2,-1 # 7fffffff <_end+0x7fffcfff>
 130:	00900193          	li	gp,9
 134:	1e771063          	bne	a4,t2,314 <fail>

00000138 <test_10>:
 138:	800000b7          	lui	ra,0x80000
 13c:	fff08093          	addi	ra,ra,-1 # 7fffffff <_end+0x7fffcfff>
 140:	7ff08713          	addi	a4,ra,2047
 144:	800003b7          	lui	t2,0x80000
 148:	7fe38393          	addi	t2,t2,2046 # 800007fe <_end+0x7fffd7fe>
 14c:	00a00193          	li	gp,10
 150:	1c771263          	bne	a4,t2,314 <fail>

00000154 <test_11>:
 154:	800000b7          	lui	ra,0x80000
 158:	7ff08713          	addi	a4,ra,2047 # 800007ff <_end+0x7fffd7ff>
 15c:	800003b7          	lui	t2,0x80000
 160:	7ff38393          	addi	t2,t2,2047 # 800007ff <_end+0x7fffd7ff>
 164:	00b00193          	li	gp,11
 168:	1a771663          	bne	a4,t2,314 <fail>

0000016c <test_12>:
 16c:	800000b7          	lui	ra,0x80000
 170:	fff08093          	addi	ra,ra,-1 # 7fffffff <_end+0x7fffcfff>
 174:	80008713          	addi	a4,ra,-2048
 178:	7ffff3b7          	lui	t2,0x7ffff
 17c:	7ff38393          	addi	t2,t2,2047 # 7ffff7ff <_end+0x7fffc7ff>
 180:	00c00193          	li	gp,12
 184:	18771863          	bne	a4,t2,314 <fail>

00000188 <test_13>:
 188:	00000093          	li	ra,0
 18c:	fff08713          	addi	a4,ra,-1
 190:	fff00393          	li	t2,-1
 194:	00d00193          	li	gp,13
 198:	16771e63          	bne	a4,t2,314 <fail>

0000019c <test_14>:
 19c:	fff00093          	li	ra,-1
 1a0:	00108713          	addi	a4,ra,1
 1a4:	00000393          	li	t2,0
 1a8:	00e00193          	li	gp,14
 1ac:	16771463          	bne	a4,t2,314 <fail>

000001b0 <test_15>:
 1b0:	fff00093          	li	ra,-1
 1b4:	fff08713          	addi	a4,ra,-1
 1b8:	ffe00393          	li	t2,-2
 1bc:	00f00193          	li	gp,15
 1c0:	14771a63          	bne	a4,t2,314 <fail>

000001c4 <test_16>:
 1c4:	800000b7          	lui	ra,0x80000
 1c8:	fff08093          	addi	ra,ra,-1 # 7fffffff <_end+0x7fffcfff>
 1cc:	00108713          	addi	a4,ra,1
 1d0:	800003b7          	lui	t2,0x80000
 1d4:	01000193          	li	gp,16
 1d8:	12771e63          	bne	a4,t2,314 <fail>

000001dc <test_17>:
 1dc:	00d00093          	li	ra,13
 1e0:	00b08093          	addi	ra,ra,11
 1e4:	01800393          	li	t2,24
 1e8:	01100193          	li	gp,17
 1ec:	12709463          	bne	ra,t2,314 <fail>

000001f0 <test_18>:
 1f0:	00000213          	li	tp,0
 1f4:	00d00093          	li	ra,13
 1f8:	00b08713          	addi	a4,ra,11
 1fc:	00070313          	mv	t1,a4
 200:	00120213          	addi	tp,tp,1 # 1 <_start+0x1>
 204:	00200293          	li	t0,2
 208:	fe5216e3          	bne	tp,t0,1f4 <test_18+0x4>
 20c:	01800393          	li	t2,24
 210:	01200193          	li	gp,18
 214:	10731063          	bne	t1,t2,314 <fail>

00000218 <test_19>:
 218:	00000213          	li	tp,0
 21c:	00d00093          	li	ra,13
 220:	00a08713          	addi	a4,ra,10
 224:	00000013          	nop
 228:	00070313          	mv	t1,a4
 22c:	00120213          	addi	tp,tp,1 # 1 <_start+0x1>
 230:	00200293          	li	t0,2
 234:	fe5214e3          	bne	tp,t0,21c <test_19+0x4>
 238:	01700393          	li	t2,23
 23c:	01300193          	li	gp,19
 240:	0c731a63          	bne	t1,t2,314 <fail>

00000244 <test_20>:
 244:	00000213          	li	tp,0
 248:	00d00093          	li	ra,13
 24c:	00908713          	addi	a4,ra,9
 250:	00000013          	nop
 254:	00000013          	nop
 258:	00070313          	mv	t1,a4
 25c:	00120213          	addi	tp,tp,1 # 1 <_start+0x1>
 260:	00200293          	li	t0,2
 264:	fe5212e3          	bne	tp,t0,248 <test_20+0x4>
 268:	01600393          	li	t2,22
 26c:	01400193          	li	gp,20
 270:	0a731263          	bne	t1,t2,314 <fail>

00000274 <test_21>:
 274:	00000213          	li	tp,0
 278:	00d00093          	li	ra,13
 27c:	00b08713          	addi	a4,ra,11
 280:	00120213          	addi	tp,tp,1 # 1 <_start+0x1>
 284:	00200293          	li	t0,2
 288:	fe5218e3          	bne	tp,t0,278 <test_21+0x4>
 28c:	01800393          	li	t2,24
 290:	01500193          	li	gp,21
 294:	08771063          	bne	a4,t2,314 <fail>

00000298 <test_22>:
 298:	00000213          	li	tp,0
 29c:	00d00093          	li	ra,13
 2a0:	00000013          	nop
 2a4:	00a08713          	addi	a4,ra,10
 2a8:	00120213          	addi	tp,tp,1 # 1 <_start+0x1>
 2ac:	00200293          	li	t0,2
 2b0:	fe5216e3          	bne	tp,t0,29c <test_22+0x4>
 2b4:	01700393          	li	t2,23
 2b8:	01600193          	li	gp,22
 2bc:	04771c63          	bne	a4,t2,314 <fail>

000002c0 <test_23>:
 2c0:	00000213          	li	tp,0
 2c4:	00d00093          	li	ra,13
 2c8:	00000013          	nop
 2cc:	00000013          	nop
 2d0:	00908713          	addi	a4,ra,9
 2d4:	00120213          	addi	tp,tp,1 # 1 <_start+0x1>
 2d8:	00200293          	li	t0,2
 2dc:	fe5214e3          	bne	tp,t0,2c4 <test_23+0x4>
 2e0:	01600393          	li	t2,22
 2e4:	01700193          	li	gp,23
 2e8:	02771663          	bne	a4,t2,314 <fail>

000002ec <test_24>:
 2ec:	02000093          	li	ra,32
 2f0:	02000393          	li	t2,32
 2f4:	01800193          	li	gp,24
 2f8:	00709e63          	bne	ra,t2,314 <fail>

000002fc <test_25>:
 2fc:	02100093          	li	ra,33
 300:	03208013          	addi	zero,ra,50
 304:	00000393          	li	t2,0
 308:	01900193          	li	gp,25
 30c:	00701463          	bne	zero,t2,314 <fail>
 310:	00301663          	bne	zero,gp,31c <pass>

00000314 <fail>:
 314:	0ff0000f          	fence
 318:	00100073          	ebreak

0000031c <pass>:
 31c:	d01e5537          	lui	a0,0xd01e5
 320:	a5550513          	addi	a0,a0,-1451 # d01e4a55 <_end+0xd01e1a55>
 324:	00a02023          	sw	a0,0(zero) # 0 <_start>
 328:	0ff0000f          	fence
 32c:	00100073          	ebreak
 330:	d01e5537          	lui	a0,0xd01e5
 334:	a5550513          	addi	a0,a0,-1451 # d01e4a55 <_end+0xd01e1a55>
 338:	00a02023          	sw	a0,0(zero) # 0 <_start>
 33c:	0ff0000f          	fence
 340:	00100073          	ebreak

Disassembly of section .text:

00002000 <trap_vector>:
    2000:	0ff0000f          	fence
    2004:	00100073          	ebreak
