
output/bltu.elf:     file format elf32-littleriscv


Disassembly of section .text.init:

00000000 <_start>:
   0:	00000093          	li	ra,0
   4:	00000113          	li	sp,0
   8:	00000193          	li	gp,0
   c:	00000213          	li	tp,0
  10:	00000293          	li	t0,0
  14:	00000313          	li	t1,0
  18:	00000393          	li	t2,0
  1c:	00000413          	li	s0,0
  20:	00000493          	li	s1,0
  24:	00000513          	li	a0,0
  28:	00000593          	li	a1,0
  2c:	00000613          	li	a2,0
  30:	00000693          	li	a3,0
  34:	00000713          	li	a4,0
  38:	00000793          	li	a5,0
  3c:	00000813          	li	a6,0
  40:	00000893          	li	a7,0
  44:	00000913          	li	s2,0
  48:	00000993          	li	s3,0
  4c:	00000a13          	li	s4,0
  50:	00000a93          	li	s5,0
  54:	00000b13          	li	s6,0
  58:	00000b93          	li	s7,0
  5c:	00000c13          	li	s8,0
  60:	00000c93          	li	s9,0
  64:	00000d13          	li	s10,0
  68:	00000d93          	li	s11,0
  6c:	00000e13          	li	t3,0
  70:	00000e93          	li	t4,0
  74:	00000f13          	li	t5,0
  78:	00000f93          	li	t6,0
  7c:	00002297          	auipc	t0,0x2
  80:	f8428293          	addi	t0,t0,-124 # 2000 <trap_vector>
  84:	30529073          	csrw	mtvec,t0
  88:	0040006f          	j	8c <reset_vector>

0000008c <reset_vector>:
  8c:	00200193          	li	gp,2
  90:	00000093          	li	ra,0
  94:	00100113          	li	sp,1
  98:	0020e663          	bltu	ra,sp,a4 <reset_vector+0x18>
  9c:	2e301263          	bne	zero,gp,380 <fail>
  a0:	00301663          	bne	zero,gp,ac <test_3>
  a4:	fe20eee3          	bltu	ra,sp,a0 <reset_vector+0x14>
  a8:	2c301c63          	bne	zero,gp,380 <fail>

000000ac <test_3>:
  ac:	00300193          	li	gp,3
  b0:	ffe00093          	li	ra,-2
  b4:	fff00113          	li	sp,-1
  b8:	0020e663          	bltu	ra,sp,c4 <test_3+0x18>
  bc:	2c301263          	bne	zero,gp,380 <fail>
  c0:	00301663          	bne	zero,gp,cc <test_4>
  c4:	fe20eee3          	bltu	ra,sp,c0 <test_3+0x14>
  c8:	2a301c63          	bne	zero,gp,380 <fail>

000000cc <test_4>:
  cc:	00400193          	li	gp,4
  d0:	00000093          	li	ra,0
  d4:	fff00113          	li	sp,-1
  d8:	0020e663          	bltu	ra,sp,e4 <test_4+0x18>
  dc:	2a301263          	bne	zero,gp,380 <fail>
  e0:	00301663          	bne	zero,gp,ec <test_5>
  e4:	fe20eee3          	bltu	ra,sp,e0 <test_4+0x14>
  e8:	28301c63          	bne	zero,gp,380 <fail>

000000ec <test_5>:
  ec:	00500193          	li	gp,5
  f0:	00100093          	li	ra,1
  f4:	00000113          	li	sp,0
  f8:	0020e463          	bltu	ra,sp,100 <test_5+0x14>
  fc:	00301463          	bne	zero,gp,104 <test_5+0x18>
 100:	28301063          	bne	zero,gp,380 <fail>
 104:	fe20eee3          	bltu	ra,sp,100 <test_5+0x14>

00000108 <test_6>:
 108:	00600193          	li	gp,6
 10c:	fff00093          	li	ra,-1
 110:	ffe00113          	li	sp,-2
 114:	0020e463          	bltu	ra,sp,11c <test_6+0x14>
 118:	00301463          	bne	zero,gp,120 <test_6+0x18>
 11c:	26301263          	bne	zero,gp,380 <fail>
 120:	fe20eee3          	bltu	ra,sp,11c <test_6+0x14>

00000124 <test_7>:
 124:	00700193          	li	gp,7
 128:	fff00093          	li	ra,-1
 12c:	00000113          	li	sp,0
 130:	0020e463          	bltu	ra,sp,138 <test_7+0x14>
 134:	00301463          	bne	zero,gp,13c <test_7+0x18>
 138:	24301463          	bne	zero,gp,380 <fail>
 13c:	fe20eee3          	bltu	ra,sp,138 <test_7+0x14>

00000140 <test_8>:
 140:	00800193          	li	gp,8
 144:	800000b7          	lui	ra,0x80000
 148:	80000137          	lui	sp,0x80000
 14c:	fff10113          	addi	sp,sp,-1 # 7fffffff <_end+0x7fffcfff>
 150:	0020e463          	bltu	ra,sp,158 <test_8+0x18>
 154:	00301463          	bne	zero,gp,15c <test_8+0x1c>
 158:	22301463          	bne	zero,gp,380 <fail>
 15c:	fe20eee3          	bltu	ra,sp,158 <test_8+0x18>

00000160 <test_9>:
 160:	00900193          	li	gp,9
 164:	00000213          	li	tp,0
 168:	f00000b7          	lui	ra,0xf0000
 16c:	f0000137          	lui	sp,0xf0000
 170:	fff10113          	addi	sp,sp,-1 # efffffff <_end+0xefffcfff>
 174:	2020e663          	bltu	ra,sp,380 <fail>
 178:	00120213          	addi	tp,tp,1 # 1 <_start+0x1>
 17c:	00200293          	li	t0,2
 180:	fe5214e3          	bne	tp,t0,168 <test_9+0x8>

00000184 <test_10>:
 184:	00a00193          	li	gp,10
 188:	00000213          	li	tp,0
 18c:	f00000b7          	lui	ra,0xf0000
 190:	f0000137          	lui	sp,0xf0000
 194:	fff10113          	addi	sp,sp,-1 # efffffff <_end+0xefffcfff>
 198:	00000013          	nop
 19c:	1e20e263          	bltu	ra,sp,380 <fail>
 1a0:	00120213          	addi	tp,tp,1 # 1 <_start+0x1>
 1a4:	00200293          	li	t0,2
 1a8:	fe5212e3          	bne	tp,t0,18c <test_10+0x8>

000001ac <test_11>:
 1ac:	00b00193          	li	gp,11
 1b0:	00000213          	li	tp,0
 1b4:	f00000b7          	lui	ra,0xf0000
 1b8:	f0000137          	lui	sp,0xf0000
 1bc:	fff10113          	addi	sp,sp,-1 # efffffff <_end+0xefffcfff>
 1c0:	00000013          	nop
 1c4:	00000013          	nop
 1c8:	1a20ec63          	bltu	ra,sp,380 <fail>
 1cc:	00120213          	addi	tp,tp,1 # 1 <_start+0x1>
 1d0:	00200293          	li	t0,2
 1d4:	fe5210e3          	bne	tp,t0,1b4 <test_11+0x8>

000001d8 <test_12>:
 1d8:	00c00193          	li	gp,12
 1dc:	00000213          	li	tp,0
 1e0:	f00000b7          	lui	ra,0xf0000
 1e4:	00000013          	nop
 1e8:	f0000137          	lui	sp,0xf0000
 1ec:	fff10113          	addi	sp,sp,-1 # efffffff <_end+0xefffcfff>
 1f0:	1820e863          	bltu	ra,sp,380 <fail>
 1f4:	00120213          	addi	tp,tp,1 # 1 <_start+0x1>
 1f8:	00200293          	li	t0,2
 1fc:	fe5212e3          	bne	tp,t0,1e0 <test_12+0x8>

00000200 <test_13>:
 200:	00d00193          	li	gp,13
 204:	00000213          	li	tp,0
 208:	f00000b7          	lui	ra,0xf0000
 20c:	00000013          	nop
 210:	f0000137          	lui	sp,0xf0000
 214:	fff10113          	addi	sp,sp,-1 # efffffff <_end+0xefffcfff>
 218:	00000013          	nop
 21c:	1620e263          	bltu	ra,sp,380 <fail>
 220:	00120213          	addi	tp,tp,1 # 1 <_start+0x1>
 224:	00200293          	li	t0,2
 228:	fe5210e3          	bne	tp,t0,208 <test_13+0x8>

0000022c <test_14>:
 22c:	00e00193          	li	gp,14
 230:	00000213          	li	tp,0
 234:	f00000b7          	lui	ra,0xf0000
 238:	00000013          	nop
 23c:	00000013          	nop
 240:	f0000137          	lui	sp,0xf0000
 244:	fff10113          	addi	sp,sp,-1 # efffffff <_end+0xefffcfff>
 248:	1220ec63          	bltu	ra,sp,380 <fail>
 24c:	00120213          	addi	tp,tp,1 # 1 <_start+0x1>
 250:	00200293          	li	t0,2
 254:	fe5210e3          	bne	tp,t0,234 <test_14+0x8>

00000258 <test_15>:
 258:	00f00193          	li	gp,15
 25c:	00000213          	li	tp,0
 260:	f00000b7          	lui	ra,0xf0000
 264:	f0000137          	lui	sp,0xf0000
 268:	fff10113          	addi	sp,sp,-1 # efffffff <_end+0xefffcfff>
 26c:	1020ea63          	bltu	ra,sp,380 <fail>
 270:	00120213          	addi	tp,tp,1 # 1 <_start+0x1>
 274:	00200293          	li	t0,2
 278:	fe5214e3          	bne	tp,t0,260 <test_15+0x8>

0000027c <test_16>:
 27c:	01000193          	li	gp,16
 280:	00000213          	li	tp,0
 284:	f00000b7          	lui	ra,0xf0000
 288:	f0000137          	lui	sp,0xf0000
 28c:	fff10113          	addi	sp,sp,-1 # efffffff <_end+0xefffcfff>
 290:	00000013          	nop
 294:	0e20e663          	bltu	ra,sp,380 <fail>
 298:	00120213          	addi	tp,tp,1 # 1 <_start+0x1>
 29c:	00200293          	li	t0,2
 2a0:	fe5212e3          	bne	tp,t0,284 <test_16+0x8>

000002a4 <test_17>:
 2a4:	01100193          	li	gp,17
 2a8:	00000213          	li	tp,0
 2ac:	f00000b7          	lui	ra,0xf0000
 2b0:	f0000137          	lui	sp,0xf0000
 2b4:	fff10113          	addi	sp,sp,-1 # efffffff <_end+0xefffcfff>
 2b8:	00000013          	nop
 2bc:	00000013          	nop
 2c0:	0c20e063          	bltu	ra,sp,380 <fail>
 2c4:	00120213          	addi	tp,tp,1 # 1 <_start+0x1>
 2c8:	00200293          	li	t0,2
 2cc:	fe5210e3          	bne	tp,t0,2ac <test_17+0x8>

000002d0 <test_18>:
 2d0:	01200193          	li	gp,18
 2d4:	00000213          	li	tp,0
 2d8:	f00000b7          	lui	ra,0xf0000
 2dc:	00000013          	nop
 2e0:	f0000137          	lui	sp,0xf0000
 2e4:	fff10113          	addi	sp,sp,-1 # efffffff <_end+0xefffcfff>
 2e8:	0820ec63          	bltu	ra,sp,380 <fail>
 2ec:	00120213          	addi	tp,tp,1 # 1 <_start+0x1>
 2f0:	00200293          	li	t0,2
 2f4:	fe5212e3          	bne	tp,t0,2d8 <test_18+0x8>

000002f8 <test_19>:
 2f8:	01300193          	li	gp,19
 2fc:	00000213          	li	tp,0
 300:	f00000b7          	lui	ra,0xf0000
 304:	00000013          	nop
 308:	f0000137          	lui	sp,0xf0000
 30c:	fff10113          	addi	sp,sp,-1 # efffffff <_end+0xefffcfff>
 310:	00000013          	nop
 314:	0620e663          	bltu	ra,sp,380 <fail>
 318:	00120213          	addi	tp,tp,1 # 1 <_start+0x1>
 31c:	00200293          	li	t0,2
 320:	fe5210e3          	bne	tp,t0,300 <test_19+0x8>

00000324 <test_20>:
 324:	01400193          	li	gp,20
 328:	00000213          	li	tp,0
 32c:	f00000b7          	lui	ra,0xf0000
 330:	00000013          	nop
 334:	00000013          	nop
 338:	f0000137          	lui	sp,0xf0000
 33c:	fff10113          	addi	sp,sp,-1 # efffffff <_end+0xefffcfff>
 340:	0420e063          	bltu	ra,sp,380 <fail>
 344:	00120213          	addi	tp,tp,1 # 1 <_start+0x1>
 348:	00200293          	li	t0,2
 34c:	fe5210e3          	bne	tp,t0,32c <test_20+0x8>

00000350 <test_21>:
 350:	00100093          	li	ra,1
 354:	00106a63          	bltu	zero,ra,368 <test_21+0x18>
 358:	00108093          	addi	ra,ra,1 # f0000001 <_end+0xefffd001>
 35c:	00108093          	addi	ra,ra,1
 360:	00108093          	addi	ra,ra,1
 364:	00108093          	addi	ra,ra,1
 368:	00108093          	addi	ra,ra,1
 36c:	00108093          	addi	ra,ra,1
 370:	00300393          	li	t2,3
 374:	01500193          	li	gp,21
 378:	00709463          	bne	ra,t2,380 <fail>
 37c:	00301663          	bne	zero,gp,388 <pass>

00000380 <fail>:
 380:	0ff0000f          	fence
 384:	00100073          	ebreak

00000388 <pass>:
 388:	d01e5537          	lui	a0,0xd01e5
 38c:	a5550513          	addi	a0,a0,-1451 # d01e4a55 <_end+0xd01e1a55>
 390:	00a02023          	sw	a0,0(zero) # 0 <_start>
 394:	0ff0000f          	fence
 398:	00100073          	ebreak
 39c:	d01e5537          	lui	a0,0xd01e5
 3a0:	a5550513          	addi	a0,a0,-1451 # d01e4a55 <_end+0xd01e1a55>
 3a4:	00a02023          	sw	a0,0(zero) # 0 <_start>
 3a8:	0ff0000f          	fence
 3ac:	00100073          	ebreak
 3b0:	0000                	unimp
 3b2:	0000                	unimp
 3b4:	0000                	unimp
 3b6:	0000                	unimp
 3b8:	0000                	unimp
 3ba:	0000                	unimp
 3bc:	0000                	unimp
 3be:	0000                	unimp
 3c0:	0000                	unimp
 3c2:	0000                	unimp

Disassembly of section .text:

00002000 <trap_vector>:
    2000:	0ff0000f          	fence
    2004:	00100073          	ebreak
