
output/bne.elf:     file format elf32-littleriscv


Disassembly of section .text.init:

00000000 <_start>:
   0:	00000093          	li	ra,0
   4:	00000113          	li	sp,0
   8:	00000193          	li	gp,0
   c:	00000213          	li	tp,0
  10:	00000293          	li	t0,0
  14:	00000313          	li	t1,0
  18:	00000393          	li	t2,0
  1c:	00000413          	li	s0,0
  20:	00000493          	li	s1,0
  24:	00000513          	li	a0,0
  28:	00000593          	li	a1,0
  2c:	00000613          	li	a2,0
  30:	00000693          	li	a3,0
  34:	00000713          	li	a4,0
  38:	00000793          	li	a5,0
  3c:	00000813          	li	a6,0
  40:	00000893          	li	a7,0
  44:	00000913          	li	s2,0
  48:	00000993          	li	s3,0
  4c:	00000a13          	li	s4,0
  50:	00000a93          	li	s5,0
  54:	00000b13          	li	s6,0
  58:	00000b93          	li	s7,0
  5c:	00000c13          	li	s8,0
  60:	00000c93          	li	s9,0
  64:	00000d13          	li	s10,0
  68:	00000d93          	li	s11,0
  6c:	00000e13          	li	t3,0
  70:	00000e93          	li	t4,0
  74:	00000f13          	li	t5,0
  78:	00000f93          	li	t6,0
  7c:	00002297          	auipc	t0,0x2
  80:	f8428293          	addi	t0,t0,-124 # 2000 <trap_vector>
  84:	30529073          	csrw	mtvec,t0
  88:	0040006f          	j	8c <reset_vector>

0000008c <reset_vector>:
  8c:	00200193          	li	gp,2
  90:	00000093          	li	ra,0
  94:	00100113          	li	sp,1
  98:	00209663          	bne	ra,sp,a4 <reset_vector+0x18>
  9c:	2a301a63          	bne	zero,gp,350 <fail>
  a0:	00301663          	bne	zero,gp,ac <test_3>
  a4:	fe209ee3          	bne	ra,sp,a0 <reset_vector+0x14>
  a8:	2a301463          	bne	zero,gp,350 <fail>

000000ac <test_3>:
  ac:	00300193          	li	gp,3
  b0:	00100093          	li	ra,1
  b4:	00000113          	li	sp,0
  b8:	00209663          	bne	ra,sp,c4 <test_3+0x18>
  bc:	28301a63          	bne	zero,gp,350 <fail>
  c0:	00301663          	bne	zero,gp,cc <test_4>
  c4:	fe209ee3          	bne	ra,sp,c0 <test_3+0x14>
  c8:	28301463          	bne	zero,gp,350 <fail>

000000cc <test_4>:
  cc:	00400193          	li	gp,4
  d0:	fff00093          	li	ra,-1
  d4:	00100113          	li	sp,1
  d8:	00209663          	bne	ra,sp,e4 <test_4+0x18>
  dc:	26301a63          	bne	zero,gp,350 <fail>
  e0:	00301663          	bne	zero,gp,ec <test_5>
  e4:	fe209ee3          	bne	ra,sp,e0 <test_4+0x14>
  e8:	26301463          	bne	zero,gp,350 <fail>

000000ec <test_5>:
  ec:	00500193          	li	gp,5
  f0:	00100093          	li	ra,1
  f4:	fff00113          	li	sp,-1
  f8:	00209663          	bne	ra,sp,104 <test_5+0x18>
  fc:	24301a63          	bne	zero,gp,350 <fail>
 100:	00301663          	bne	zero,gp,10c <test_6>
 104:	fe209ee3          	bne	ra,sp,100 <test_5+0x14>
 108:	24301463          	bne	zero,gp,350 <fail>

0000010c <test_6>:
 10c:	00600193          	li	gp,6
 110:	00000093          	li	ra,0
 114:	00000113          	li	sp,0
 118:	00209463          	bne	ra,sp,120 <test_6+0x14>
 11c:	00301463          	bne	zero,gp,124 <test_6+0x18>
 120:	22301863          	bne	zero,gp,350 <fail>
 124:	fe209ee3          	bne	ra,sp,120 <test_6+0x14>

00000128 <test_7>:
 128:	00700193          	li	gp,7
 12c:	00100093          	li	ra,1
 130:	00100113          	li	sp,1
 134:	00209463          	bne	ra,sp,13c <test_7+0x14>
 138:	00301463          	bne	zero,gp,140 <test_7+0x18>
 13c:	20301a63          	bne	zero,gp,350 <fail>
 140:	fe209ee3          	bne	ra,sp,13c <test_7+0x14>

00000144 <test_8>:
 144:	00800193          	li	gp,8
 148:	fff00093          	li	ra,-1
 14c:	fff00113          	li	sp,-1
 150:	00209463          	bne	ra,sp,158 <test_8+0x14>
 154:	00301463          	bne	zero,gp,15c <test_8+0x18>
 158:	1e301c63          	bne	zero,gp,350 <fail>
 15c:	fe209ee3          	bne	ra,sp,158 <test_8+0x14>

00000160 <test_9>:
 160:	00900193          	li	gp,9
 164:	00000213          	li	tp,0
 168:	00000093          	li	ra,0
 16c:	00000113          	li	sp,0
 170:	1e209063          	bne	ra,sp,350 <fail>
 174:	00120213          	addi	tp,tp,1 # 1 <_start+0x1>
 178:	00200293          	li	t0,2
 17c:	fe5216e3          	bne	tp,t0,168 <test_9+0x8>

00000180 <test_10>:
 180:	00a00193          	li	gp,10
 184:	00000213          	li	tp,0
 188:	00000093          	li	ra,0
 18c:	00000113          	li	sp,0
 190:	00000013          	nop
 194:	1a209e63          	bne	ra,sp,350 <fail>
 198:	00120213          	addi	tp,tp,1 # 1 <_start+0x1>
 19c:	00200293          	li	t0,2
 1a0:	fe5214e3          	bne	tp,t0,188 <test_10+0x8>

000001a4 <test_11>:
 1a4:	00b00193          	li	gp,11
 1a8:	00000213          	li	tp,0
 1ac:	00000093          	li	ra,0
 1b0:	00000113          	li	sp,0
 1b4:	00000013          	nop
 1b8:	00000013          	nop
 1bc:	18209a63          	bne	ra,sp,350 <fail>
 1c0:	00120213          	addi	tp,tp,1 # 1 <_start+0x1>
 1c4:	00200293          	li	t0,2
 1c8:	fe5212e3          	bne	tp,t0,1ac <test_11+0x8>

000001cc <test_12>:
 1cc:	00c00193          	li	gp,12
 1d0:	00000213          	li	tp,0
 1d4:	00000093          	li	ra,0
 1d8:	00000013          	nop
 1dc:	00000113          	li	sp,0
 1e0:	16209863          	bne	ra,sp,350 <fail>
 1e4:	00120213          	addi	tp,tp,1 # 1 <_start+0x1>
 1e8:	00200293          	li	t0,2
 1ec:	fe5214e3          	bne	tp,t0,1d4 <test_12+0x8>

000001f0 <test_13>:
 1f0:	00d00193          	li	gp,13
 1f4:	00000213          	li	tp,0
 1f8:	00000093          	li	ra,0
 1fc:	00000013          	nop
 200:	00000113          	li	sp,0
 204:	00000013          	nop
 208:	14209463          	bne	ra,sp,350 <fail>
 20c:	00120213          	addi	tp,tp,1 # 1 <_start+0x1>
 210:	00200293          	li	t0,2
 214:	fe5212e3          	bne	tp,t0,1f8 <test_13+0x8>

00000218 <test_14>:
 218:	00e00193          	li	gp,14
 21c:	00000213          	li	tp,0
 220:	00000093          	li	ra,0
 224:	00000013          	nop
 228:	00000013          	nop
 22c:	00000113          	li	sp,0
 230:	12209063          	bne	ra,sp,350 <fail>
 234:	00120213          	addi	tp,tp,1 # 1 <_start+0x1>
 238:	00200293          	li	t0,2
 23c:	fe5212e3          	bne	tp,t0,220 <test_14+0x8>

00000240 <test_15>:
 240:	00f00193          	li	gp,15
 244:	00000213          	li	tp,0
 248:	00000093          	li	ra,0
 24c:	00000113          	li	sp,0
 250:	10209063          	bne	ra,sp,350 <fail>
 254:	00120213          	addi	tp,tp,1 # 1 <_start+0x1>
 258:	00200293          	li	t0,2
 25c:	fe5216e3          	bne	tp,t0,248 <test_15+0x8>

00000260 <test_16>:
 260:	01000193          	li	gp,16
 264:	00000213          	li	tp,0
 268:	00000093          	li	ra,0
 26c:	00000113          	li	sp,0
 270:	00000013          	nop
 274:	0c209e63          	bne	ra,sp,350 <fail>
 278:	00120213          	addi	tp,tp,1 # 1 <_start+0x1>
 27c:	00200293          	li	t0,2
 280:	fe5214e3          	bne	tp,t0,268 <test_16+0x8>

00000284 <test_17>:
 284:	01100193          	li	gp,17
 288:	00000213          	li	tp,0
 28c:	00000093          	li	ra,0
 290:	00000113          	li	sp,0
 294:	00000013          	nop
 298:	00000013          	nop
 29c:	0a209a63          	bne	ra,sp,350 <fail>
 2a0:	00120213          	addi	tp,tp,1 # 1 <_start+0x1>
 2a4:	00200293          	li	t0,2
 2a8:	fe5212e3          	bne	tp,t0,28c <test_17+0x8>

000002ac <test_18>:
 2ac:	01200193          	li	gp,18
 2b0:	00000213          	li	tp,0
 2b4:	00000093          	li	ra,0
 2b8:	00000013          	nop
 2bc:	00000113          	li	sp,0
 2c0:	08209863          	bne	ra,sp,350 <fail>
 2c4:	00120213          	addi	tp,tp,1 # 1 <_start+0x1>
 2c8:	00200293          	li	t0,2
 2cc:	fe5214e3          	bne	tp,t0,2b4 <test_18+0x8>

000002d0 <test_19>:
 2d0:	01300193          	li	gp,19
 2d4:	00000213          	li	tp,0
 2d8:	00000093          	li	ra,0
 2dc:	00000013          	nop
 2e0:	00000113          	li	sp,0
 2e4:	00000013          	nop
 2e8:	06209463          	bne	ra,sp,350 <fail>
 2ec:	00120213          	addi	tp,tp,1 # 1 <_start+0x1>
 2f0:	00200293          	li	t0,2
 2f4:	fe5212e3          	bne	tp,t0,2d8 <test_19+0x8>

000002f8 <test_20>:
 2f8:	01400193          	li	gp,20
 2fc:	00000213          	li	tp,0
 300:	00000093          	li	ra,0
 304:	00000013          	nop
 308:	00000013          	nop
 30c:	00000113          	li	sp,0
 310:	04209063          	bne	ra,sp,350 <fail>
 314:	00120213          	addi	tp,tp,1 # 1 <_start+0x1>
 318:	00200293          	li	t0,2
 31c:	fe5212e3          	bne	tp,t0,300 <test_20+0x8>

00000320 <test_21>:
 320:	00100093          	li	ra,1
 324:	00009a63          	bnez	ra,338 <test_21+0x18>
 328:	00108093          	addi	ra,ra,1
 32c:	00108093          	addi	ra,ra,1
 330:	00108093          	addi	ra,ra,1
 334:	00108093          	addi	ra,ra,1
 338:	00108093          	addi	ra,ra,1
 33c:	00108093          	addi	ra,ra,1
 340:	00300393          	li	t2,3
 344:	01500193          	li	gp,21
 348:	00709463          	bne	ra,t2,350 <fail>
 34c:	00301663          	bne	zero,gp,358 <pass>

00000350 <fail>:
 350:	0ff0000f          	fence
 354:	00100073          	ebreak

00000358 <pass>:
 358:	d01e5537          	lui	a0,0xd01e5
 35c:	a5550513          	addi	a0,a0,-1451 # d01e4a55 <_end+0xd01e1a55>
 360:	00a02023          	sw	a0,0(zero) # 0 <_start>
 364:	0ff0000f          	fence
 368:	00100073          	ebreak
 36c:	d01e5537          	lui	a0,0xd01e5
 370:	a5550513          	addi	a0,a0,-1451 # d01e4a55 <_end+0xd01e1a55>
 374:	00a02023          	sw	a0,0(zero) # 0 <_start>
 378:	0ff0000f          	fence
 37c:	00100073          	ebreak
 380:	0000                	unimp
 382:	0000                	unimp

Disassembly of section .text:

00002000 <trap_vector>:
    2000:	0ff0000f          	fence
    2004:	00100073          	ebreak
