
output/mul.elf:     file format elf32-littleriscv


Disassembly of section .text.init:

00000000 <_start>:
   0:	00000093          	li	ra,0
   4:	00000113          	li	sp,0
   8:	00000193          	li	gp,0
   c:	00000213          	li	tp,0
  10:	00000293          	li	t0,0
  14:	00000313          	li	t1,0
  18:	00000393          	li	t2,0
  1c:	00000413          	li	s0,0
  20:	00000493          	li	s1,0
  24:	00000513          	li	a0,0
  28:	00000593          	li	a1,0
  2c:	00000613          	li	a2,0
  30:	00000693          	li	a3,0
  34:	00000713          	li	a4,0
  38:	00000793          	li	a5,0
  3c:	00000813          	li	a6,0
  40:	00000893          	li	a7,0
  44:	00000913          	li	s2,0
  48:	00000993          	li	s3,0
  4c:	00000a13          	li	s4,0
  50:	00000a93          	li	s5,0
  54:	00000b13          	li	s6,0
  58:	00000b93          	li	s7,0
  5c:	00000c13          	li	s8,0
  60:	00000c93          	li	s9,0
  64:	00000d13          	li	s10,0
  68:	00000d93          	li	s11,0
  6c:	00000e13          	li	t3,0
  70:	00000e93          	li	t4,0
  74:	00000f13          	li	t5,0
  78:	00000f93          	li	t6,0
  7c:	00002297          	auipc	t0,0x2
  80:	f8428293          	addi	t0,t0,-124 # 2000 <trap_vector>
  84:	30529073          	csrw	mtvec,t0
  88:	0040006f          	j	8c <reset_vector>

0000008c <reset_vector>:
  8c:	000080b7          	lui	ra,0x8
  90:	e0008093          	addi	ra,ra,-512 # 7e00 <_end+0x4e00>
  94:	b6db7137          	lui	sp,0xb6db7
  98:	db710113          	addi	sp,sp,-585 # b6db6db7 <_end+0xb6db3db7>
  9c:	02208733          	mul	a4,ra,sp
  a0:	000013b7          	lui	t2,0x1
  a4:	20038393          	addi	t2,t2,512 # 1200 <fromhost+0x1c0>
  a8:	02000193          	li	gp,32
  ac:	4a771463          	bne	a4,t2,554 <fail>

000000b0 <test_33>:
  b0:	000080b7          	lui	ra,0x8
  b4:	fc008093          	addi	ra,ra,-64 # 7fc0 <_end+0x4fc0>
  b8:	b6db7137          	lui	sp,0xb6db7
  bc:	db710113          	addi	sp,sp,-585 # b6db6db7 <_end+0xb6db3db7>
  c0:	02208733          	mul	a4,ra,sp
  c4:	000013b7          	lui	t2,0x1
  c8:	24038393          	addi	t2,t2,576 # 1240 <fromhost+0x200>
  cc:	02100193          	li	gp,33
  d0:	48771263          	bne	a4,t2,554 <fail>

000000d4 <test_2>:
  d4:	00000093          	li	ra,0
  d8:	00000113          	li	sp,0
  dc:	02208733          	mul	a4,ra,sp
  e0:	00000393          	li	t2,0
  e4:	00200193          	li	gp,2
  e8:	46771663          	bne	a4,t2,554 <fail>

000000ec <test_3>:
  ec:	00100093          	li	ra,1
  f0:	00100113          	li	sp,1
  f4:	02208733          	mul	a4,ra,sp
  f8:	00100393          	li	t2,1
  fc:	00300193          	li	gp,3
 100:	44771a63          	bne	a4,t2,554 <fail>

00000104 <test_4>:
 104:	00300093          	li	ra,3
 108:	00700113          	li	sp,7
 10c:	02208733          	mul	a4,ra,sp
 110:	01500393          	li	t2,21
 114:	00400193          	li	gp,4
 118:	42771e63          	bne	a4,t2,554 <fail>

0000011c <test_5>:
 11c:	00000093          	li	ra,0
 120:	ffff8137          	lui	sp,0xffff8
 124:	02208733          	mul	a4,ra,sp
 128:	00000393          	li	t2,0
 12c:	00500193          	li	gp,5
 130:	42771263          	bne	a4,t2,554 <fail>

00000134 <test_6>:
 134:	800000b7          	lui	ra,0x80000
 138:	00000113          	li	sp,0
 13c:	02208733          	mul	a4,ra,sp
 140:	00000393          	li	t2,0
 144:	00600193          	li	gp,6
 148:	40771663          	bne	a4,t2,554 <fail>

0000014c <test_7>:
 14c:	800000b7          	lui	ra,0x80000
 150:	ffff8137          	lui	sp,0xffff8
 154:	02208733          	mul	a4,ra,sp
 158:	00000393          	li	t2,0
 15c:	00700193          	li	gp,7
 160:	3e771a63          	bne	a4,t2,554 <fail>

00000164 <test_30>:
 164:	aaaab0b7          	lui	ra,0xaaaab
 168:	aab08093          	addi	ra,ra,-1365 # aaaaaaab <_end+0xaaaa7aab>
 16c:	00030137          	lui	sp,0x30
 170:	e7d10113          	addi	sp,sp,-387 # 2fe7d <_end+0x2ce7d>
 174:	02208733          	mul	a4,ra,sp
 178:	000103b7          	lui	t2,0x10
 17c:	f7f38393          	addi	t2,t2,-129 # ff7f <_end+0xcf7f>
 180:	01e00193          	li	gp,30
 184:	3c771863          	bne	a4,t2,554 <fail>

00000188 <test_31>:
 188:	000300b7          	lui	ra,0x30
 18c:	e7d08093          	addi	ra,ra,-387 # 2fe7d <_end+0x2ce7d>
 190:	aaaab137          	lui	sp,0xaaaab
 194:	aab10113          	addi	sp,sp,-1365 # aaaaaaab <_end+0xaaaa7aab>
 198:	02208733          	mul	a4,ra,sp
 19c:	000103b7          	lui	t2,0x10
 1a0:	f7f38393          	addi	t2,t2,-129 # ff7f <_end+0xcf7f>
 1a4:	01f00193          	li	gp,31
 1a8:	3a771663          	bne	a4,t2,554 <fail>

000001ac <test_34>:
 1ac:	ff0000b7          	lui	ra,0xff000
 1b0:	ff000137          	lui	sp,0xff000
 1b4:	02208733          	mul	a4,ra,sp
 1b8:	00000393          	li	t2,0
 1bc:	02200193          	li	gp,34
 1c0:	38771a63          	bne	a4,t2,554 <fail>

000001c4 <test_35>:
 1c4:	fff00093          	li	ra,-1
 1c8:	fff00113          	li	sp,-1
 1cc:	02208733          	mul	a4,ra,sp
 1d0:	00100393          	li	t2,1
 1d4:	02300193          	li	gp,35
 1d8:	36771e63          	bne	a4,t2,554 <fail>

000001dc <test_36>:
 1dc:	fff00093          	li	ra,-1
 1e0:	00100113          	li	sp,1
 1e4:	02208733          	mul	a4,ra,sp
 1e8:	fff00393          	li	t2,-1
 1ec:	02400193          	li	gp,36
 1f0:	36771263          	bne	a4,t2,554 <fail>

000001f4 <test_37>:
 1f4:	00100093          	li	ra,1
 1f8:	fff00113          	li	sp,-1
 1fc:	02208733          	mul	a4,ra,sp
 200:	fff00393          	li	t2,-1
 204:	02500193          	li	gp,37
 208:	34771663          	bne	a4,t2,554 <fail>

0000020c <test_8>:
 20c:	00d00093          	li	ra,13
 210:	00b00113          	li	sp,11
 214:	022080b3          	mul	ra,ra,sp
 218:	08f00393          	li	t2,143
 21c:	00800193          	li	gp,8
 220:	32709a63          	bne	ra,t2,554 <fail>

00000224 <test_9>:
 224:	00e00093          	li	ra,14
 228:	00b00113          	li	sp,11
 22c:	02208133          	mul	sp,ra,sp
 230:	09a00393          	li	t2,154
 234:	00900193          	li	gp,9
 238:	30711e63          	bne	sp,t2,554 <fail>

0000023c <test_10>:
 23c:	00d00093          	li	ra,13
 240:	021080b3          	mul	ra,ra,ra
 244:	0a900393          	li	t2,169
 248:	00a00193          	li	gp,10
 24c:	30709463          	bne	ra,t2,554 <fail>

00000250 <test_11>:
 250:	00000213          	li	tp,0
 254:	00d00093          	li	ra,13
 258:	00b00113          	li	sp,11
 25c:	02208733          	mul	a4,ra,sp
 260:	00070313          	mv	t1,a4
 264:	00120213          	addi	tp,tp,1 # 1 <_start+0x1>
 268:	00200293          	li	t0,2
 26c:	fe5214e3          	bne	tp,t0,254 <test_11+0x4>
 270:	08f00393          	li	t2,143
 274:	00b00193          	li	gp,11
 278:	2c731e63          	bne	t1,t2,554 <fail>

0000027c <test_12>:
 27c:	00000213          	li	tp,0
 280:	00e00093          	li	ra,14
 284:	00b00113          	li	sp,11
 288:	02208733          	mul	a4,ra,sp
 28c:	00000013          	nop
 290:	00070313          	mv	t1,a4
 294:	00120213          	addi	tp,tp,1 # 1 <_start+0x1>
 298:	00200293          	li	t0,2
 29c:	fe5212e3          	bne	tp,t0,280 <test_12+0x4>
 2a0:	09a00393          	li	t2,154
 2a4:	00c00193          	li	gp,12
 2a8:	2a731663          	bne	t1,t2,554 <fail>

000002ac <test_13>:
 2ac:	00000213          	li	tp,0
 2b0:	00f00093          	li	ra,15
 2b4:	00b00113          	li	sp,11
 2b8:	02208733          	mul	a4,ra,sp
 2bc:	00000013          	nop
 2c0:	00000013          	nop
 2c4:	00070313          	mv	t1,a4
 2c8:	00120213          	addi	tp,tp,1 # 1 <_start+0x1>
 2cc:	00200293          	li	t0,2
 2d0:	fe5210e3          	bne	tp,t0,2b0 <test_13+0x4>
 2d4:	0a500393          	li	t2,165
 2d8:	00d00193          	li	gp,13
 2dc:	26731c63          	bne	t1,t2,554 <fail>

000002e0 <test_14>:
 2e0:	00000213          	li	tp,0
 2e4:	00d00093          	li	ra,13
 2e8:	00b00113          	li	sp,11
 2ec:	02208733          	mul	a4,ra,sp
 2f0:	00120213          	addi	tp,tp,1 # 1 <_start+0x1>
 2f4:	00200293          	li	t0,2
 2f8:	fe5216e3          	bne	tp,t0,2e4 <test_14+0x4>
 2fc:	08f00393          	li	t2,143
 300:	00e00193          	li	gp,14
 304:	24771863          	bne	a4,t2,554 <fail>

00000308 <test_15>:
 308:	00000213          	li	tp,0
 30c:	00e00093          	li	ra,14
 310:	00b00113          	li	sp,11
 314:	00000013          	nop
 318:	02208733          	mul	a4,ra,sp
 31c:	00120213          	addi	tp,tp,1 # 1 <_start+0x1>
 320:	00200293          	li	t0,2
 324:	fe5214e3          	bne	tp,t0,30c <test_15+0x4>
 328:	09a00393          	li	t2,154
 32c:	00f00193          	li	gp,15
 330:	22771263          	bne	a4,t2,554 <fail>

00000334 <test_16>:
 334:	00000213          	li	tp,0
 338:	00f00093          	li	ra,15
 33c:	00b00113          	li	sp,11
 340:	00000013          	nop
 344:	00000013          	nop
 348:	02208733          	mul	a4,ra,sp
 34c:	00120213          	addi	tp,tp,1 # 1 <_start+0x1>
 350:	00200293          	li	t0,2
 354:	fe5212e3          	bne	tp,t0,338 <test_16+0x4>
 358:	0a500393          	li	t2,165
 35c:	01000193          	li	gp,16
 360:	1e771a63          	bne	a4,t2,554 <fail>

00000364 <test_17>:
 364:	00000213          	li	tp,0
 368:	00d00093          	li	ra,13
 36c:	00000013          	nop
 370:	00b00113          	li	sp,11
 374:	02208733          	mul	a4,ra,sp
 378:	00120213          	addi	tp,tp,1 # 1 <_start+0x1>
 37c:	00200293          	li	t0,2
 380:	fe5214e3          	bne	tp,t0,368 <test_17+0x4>
 384:	08f00393          	li	t2,143
 388:	01100193          	li	gp,17
 38c:	1c771463          	bne	a4,t2,554 <fail>

00000390 <test_18>:
 390:	00000213          	li	tp,0
 394:	00e00093          	li	ra,14
 398:	00000013          	nop
 39c:	00b00113          	li	sp,11
 3a0:	00000013          	nop
 3a4:	02208733          	mul	a4,ra,sp
 3a8:	00120213          	addi	tp,tp,1 # 1 <_start+0x1>
 3ac:	00200293          	li	t0,2
 3b0:	fe5212e3          	bne	tp,t0,394 <test_18+0x4>
 3b4:	09a00393          	li	t2,154
 3b8:	01200193          	li	gp,18
 3bc:	18771c63          	bne	a4,t2,554 <fail>

000003c0 <test_19>:
 3c0:	00000213          	li	tp,0
 3c4:	00f00093          	li	ra,15
 3c8:	00000013          	nop
 3cc:	00000013          	nop
 3d0:	00b00113          	li	sp,11
 3d4:	02208733          	mul	a4,ra,sp
 3d8:	00120213          	addi	tp,tp,1 # 1 <_start+0x1>
 3dc:	00200293          	li	t0,2
 3e0:	fe5212e3          	bne	tp,t0,3c4 <test_19+0x4>
 3e4:	0a500393          	li	t2,165
 3e8:	01300193          	li	gp,19
 3ec:	16771463          	bne	a4,t2,554 <fail>

000003f0 <test_20>:
 3f0:	00000213          	li	tp,0
 3f4:	00b00113          	li	sp,11
 3f8:	00d00093          	li	ra,13
 3fc:	02208733          	mul	a4,ra,sp
 400:	00120213          	addi	tp,tp,1 # 1 <_start+0x1>
 404:	00200293          	li	t0,2
 408:	fe5216e3          	bne	tp,t0,3f4 <test_20+0x4>
 40c:	08f00393          	li	t2,143
 410:	01400193          	li	gp,20
 414:	14771063          	bne	a4,t2,554 <fail>

00000418 <test_21>:
 418:	00000213          	li	tp,0
 41c:	00b00113          	li	sp,11
 420:	00e00093          	li	ra,14
 424:	00000013          	nop
 428:	02208733          	mul	a4,ra,sp
 42c:	00120213          	addi	tp,tp,1 # 1 <_start+0x1>
 430:	00200293          	li	t0,2
 434:	fe5214e3          	bne	tp,t0,41c <test_21+0x4>
 438:	09a00393          	li	t2,154
 43c:	01500193          	li	gp,21
 440:	10771a63          	bne	a4,t2,554 <fail>

00000444 <test_22>:
 444:	00000213          	li	tp,0
 448:	00b00113          	li	sp,11
 44c:	00f00093          	li	ra,15
 450:	00000013          	nop
 454:	00000013          	nop
 458:	02208733          	mul	a4,ra,sp
 45c:	00120213          	addi	tp,tp,1 # 1 <_start+0x1>
 460:	00200293          	li	t0,2
 464:	fe5212e3          	bne	tp,t0,448 <test_22+0x4>
 468:	0a500393          	li	t2,165
 46c:	01600193          	li	gp,22
 470:	0e771263          	bne	a4,t2,554 <fail>

00000474 <test_23>:
 474:	00000213          	li	tp,0
 478:	00b00113          	li	sp,11
 47c:	00000013          	nop
 480:	00d00093          	li	ra,13
 484:	02208733          	mul	a4,ra,sp
 488:	00120213          	addi	tp,tp,1 # 1 <_start+0x1>
 48c:	00200293          	li	t0,2
 490:	fe5214e3          	bne	tp,t0,478 <test_23+0x4>
 494:	08f00393          	li	t2,143
 498:	01700193          	li	gp,23
 49c:	0a771c63          	bne	a4,t2,554 <fail>

000004a0 <test_24>:
 4a0:	00000213          	li	tp,0
 4a4:	00b00113          	li	sp,11
 4a8:	00000013          	nop
 4ac:	00e00093          	li	ra,14
 4b0:	00000013          	nop
 4b4:	02208733          	mul	a4,ra,sp
 4b8:	00120213          	addi	tp,tp,1 # 1 <_start+0x1>
 4bc:	00200293          	li	t0,2
 4c0:	fe5212e3          	bne	tp,t0,4a4 <test_24+0x4>
 4c4:	09a00393          	li	t2,154
 4c8:	01800193          	li	gp,24
 4cc:	08771463          	bne	a4,t2,554 <fail>

000004d0 <test_25>:
 4d0:	00000213          	li	tp,0
 4d4:	00b00113          	li	sp,11
 4d8:	00000013          	nop
 4dc:	00000013          	nop
 4e0:	00f00093          	li	ra,15
 4e4:	02208733          	mul	a4,ra,sp
 4e8:	00120213          	addi	tp,tp,1 # 1 <_start+0x1>
 4ec:	00200293          	li	t0,2
 4f0:	fe5212e3          	bne	tp,t0,4d4 <test_25+0x4>
 4f4:	0a500393          	li	t2,165
 4f8:	01900193          	li	gp,25
 4fc:	04771c63          	bne	a4,t2,554 <fail>

00000500 <test_26>:
 500:	01f00093          	li	ra,31
 504:	02100133          	mul	sp,zero,ra
 508:	00000393          	li	t2,0
 50c:	01a00193          	li	gp,26
 510:	04711263          	bne	sp,t2,554 <fail>

00000514 <test_27>:
 514:	02000093          	li	ra,32
 518:	02008133          	mul	sp,ra,zero
 51c:	00000393          	li	t2,0
 520:	01b00193          	li	gp,27
 524:	02711863          	bne	sp,t2,554 <fail>

00000528 <test_28>:
 528:	020000b3          	mul	ra,zero,zero
 52c:	00000393          	li	t2,0
 530:	01c00193          	li	gp,28
 534:	02709063          	bne	ra,t2,554 <fail>

00000538 <test_29>:
 538:	02100093          	li	ra,33
 53c:	02200113          	li	sp,34
 540:	02208033          	mul	zero,ra,sp
 544:	00000393          	li	t2,0
 548:	01d00193          	li	gp,29
 54c:	00701463          	bne	zero,t2,554 <fail>
 550:	00301663          	bne	zero,gp,55c <pass>

00000554 <fail>:
 554:	0ff0000f          	fence
 558:	00100073          	ebreak

0000055c <pass>:
 55c:	d01e5537          	lui	a0,0xd01e5
 560:	a5550513          	addi	a0,a0,-1451 # d01e4a55 <_end+0xd01e1a55>
 564:	00a02023          	sw	a0,0(zero) # 0 <_start>
 568:	0ff0000f          	fence
 56c:	00100073          	ebreak
 570:	d01e5537          	lui	a0,0xd01e5
 574:	a5550513          	addi	a0,a0,-1451 # d01e4a55 <_end+0xd01e1a55>
 578:	00a02023          	sw	a0,0(zero) # 0 <_start>
 57c:	0ff0000f          	fence
 580:	00100073          	ebreak

Disassembly of section .text:

00002000 <trap_vector>:
    2000:	0ff0000f          	fence
    2004:	00100073          	ebreak
