
output/slli.elf:     file format elf32-littleriscv


Disassembly of section .text.init:

00000000 <_start>:
   0:	00000093          	li	ra,0
   4:	00000113          	li	sp,0
   8:	00000193          	li	gp,0
   c:	00000213          	li	tp,0
  10:	00000293          	li	t0,0
  14:	00000313          	li	t1,0
  18:	00000393          	li	t2,0
  1c:	00000413          	li	s0,0
  20:	00000493          	li	s1,0
  24:	00000513          	li	a0,0
  28:	00000593          	li	a1,0
  2c:	00000613          	li	a2,0
  30:	00000693          	li	a3,0
  34:	00000713          	li	a4,0
  38:	00000793          	li	a5,0
  3c:	00000813          	li	a6,0
  40:	00000893          	li	a7,0
  44:	00000913          	li	s2,0
  48:	00000993          	li	s3,0
  4c:	00000a13          	li	s4,0
  50:	00000a93          	li	s5,0
  54:	00000b13          	li	s6,0
  58:	00000b93          	li	s7,0
  5c:	00000c13          	li	s8,0
  60:	00000c93          	li	s9,0
  64:	00000d13          	li	s10,0
  68:	00000d93          	li	s11,0
  6c:	00000e13          	li	t3,0
  70:	00000e93          	li	t4,0
  74:	00000f13          	li	t5,0
  78:	00000f93          	li	t6,0
  7c:	00002297          	auipc	t0,0x2
  80:	f8428293          	addi	t0,t0,-124 # 2000 <trap_vector>
  84:	30529073          	csrw	mtvec,t0
  88:	0040006f          	j	8c <reset_vector>

0000008c <reset_vector>:
  8c:	00100093          	li	ra,1
  90:	00009713          	slli	a4,ra,0x0
  94:	00100393          	li	t2,1
  98:	00200193          	li	gp,2
  9c:	26771a63          	bne	a4,t2,310 <fail>

000000a0 <test_3>:
  a0:	00100093          	li	ra,1
  a4:	00109713          	slli	a4,ra,0x1
  a8:	00200393          	li	t2,2
  ac:	00300193          	li	gp,3
  b0:	26771063          	bne	a4,t2,310 <fail>

000000b4 <test_4>:
  b4:	00100093          	li	ra,1
  b8:	00709713          	slli	a4,ra,0x7
  bc:	08000393          	li	t2,128
  c0:	00400193          	li	gp,4
  c4:	24771663          	bne	a4,t2,310 <fail>

000000c8 <test_5>:
  c8:	00100093          	li	ra,1
  cc:	00e09713          	slli	a4,ra,0xe
  d0:	000043b7          	lui	t2,0x4
  d4:	00500193          	li	gp,5
  d8:	22771c63          	bne	a4,t2,310 <fail>

000000dc <test_6>:
  dc:	00100093          	li	ra,1
  e0:	01f09713          	slli	a4,ra,0x1f
  e4:	800003b7          	lui	t2,0x80000
  e8:	00600193          	li	gp,6
  ec:	22771263          	bne	a4,t2,310 <fail>

000000f0 <test_7>:
  f0:	fff00093          	li	ra,-1
  f4:	00009713          	slli	a4,ra,0x0
  f8:	fff00393          	li	t2,-1
  fc:	00700193          	li	gp,7
 100:	20771863          	bne	a4,t2,310 <fail>

00000104 <test_8>:
 104:	fff00093          	li	ra,-1
 108:	00109713          	slli	a4,ra,0x1
 10c:	ffe00393          	li	t2,-2
 110:	00800193          	li	gp,8
 114:	1e771e63          	bne	a4,t2,310 <fail>

00000118 <test_9>:
 118:	fff00093          	li	ra,-1
 11c:	00709713          	slli	a4,ra,0x7
 120:	f8000393          	li	t2,-128
 124:	00900193          	li	gp,9
 128:	1e771463          	bne	a4,t2,310 <fail>

0000012c <test_10>:
 12c:	fff00093          	li	ra,-1
 130:	00e09713          	slli	a4,ra,0xe
 134:	ffffc3b7          	lui	t2,0xffffc
 138:	00a00193          	li	gp,10
 13c:	1c771a63          	bne	a4,t2,310 <fail>

00000140 <test_11>:
 140:	fff00093          	li	ra,-1
 144:	01f09713          	slli	a4,ra,0x1f
 148:	800003b7          	lui	t2,0x80000
 14c:	00b00193          	li	gp,11
 150:	1c771063          	bne	a4,t2,310 <fail>

00000154 <test_12>:
 154:	212120b7          	lui	ra,0x21212
 158:	12108093          	addi	ra,ra,289 # 21212121 <_end+0x2120f121>
 15c:	00009713          	slli	a4,ra,0x0
 160:	212123b7          	lui	t2,0x21212
 164:	12138393          	addi	t2,t2,289 # 21212121 <_end+0x2120f121>
 168:	00c00193          	li	gp,12
 16c:	1a771263          	bne	a4,t2,310 <fail>

00000170 <test_13>:
 170:	212120b7          	lui	ra,0x21212
 174:	12108093          	addi	ra,ra,289 # 21212121 <_end+0x2120f121>
 178:	00109713          	slli	a4,ra,0x1
 17c:	424243b7          	lui	t2,0x42424
 180:	24238393          	addi	t2,t2,578 # 42424242 <_end+0x42421242>
 184:	00d00193          	li	gp,13
 188:	18771463          	bne	a4,t2,310 <fail>

0000018c <test_14>:
 18c:	212120b7          	lui	ra,0x21212
 190:	12108093          	addi	ra,ra,289 # 21212121 <_end+0x2120f121>
 194:	00709713          	slli	a4,ra,0x7
 198:	909093b7          	lui	t2,0x90909
 19c:	08038393          	addi	t2,t2,128 # 90909080 <_end+0x90906080>
 1a0:	00e00193          	li	gp,14
 1a4:	16771663          	bne	a4,t2,310 <fail>

000001a8 <test_15>:
 1a8:	212120b7          	lui	ra,0x21212
 1ac:	12108093          	addi	ra,ra,289 # 21212121 <_end+0x2120f121>
 1b0:	00e09713          	slli	a4,ra,0xe
 1b4:	484843b7          	lui	t2,0x48484
 1b8:	00f00193          	li	gp,15
 1bc:	14771a63          	bne	a4,t2,310 <fail>

000001c0 <test_16>:
 1c0:	212120b7          	lui	ra,0x21212
 1c4:	12108093          	addi	ra,ra,289 # 21212121 <_end+0x2120f121>
 1c8:	01f09713          	slli	a4,ra,0x1f
 1cc:	800003b7          	lui	t2,0x80000
 1d0:	01000193          	li	gp,16
 1d4:	12771e63          	bne	a4,t2,310 <fail>

000001d8 <test_17>:
 1d8:	00100093          	li	ra,1
 1dc:	00709093          	slli	ra,ra,0x7
 1e0:	08000393          	li	t2,128
 1e4:	01100193          	li	gp,17
 1e8:	12709463          	bne	ra,t2,310 <fail>

000001ec <test_18>:
 1ec:	00000213          	li	tp,0
 1f0:	00100093          	li	ra,1
 1f4:	00709713          	slli	a4,ra,0x7
 1f8:	00070313          	mv	t1,a4
 1fc:	00120213          	addi	tp,tp,1 # 1 <_start+0x1>
 200:	00200293          	li	t0,2
 204:	fe5216e3          	bne	tp,t0,1f0 <test_18+0x4>
 208:	08000393          	li	t2,128
 20c:	01200193          	li	gp,18
 210:	10731063          	bne	t1,t2,310 <fail>

00000214 <test_19>:
 214:	00000213          	li	tp,0
 218:	00100093          	li	ra,1
 21c:	00e09713          	slli	a4,ra,0xe
 220:	00000013          	nop
 224:	00070313          	mv	t1,a4
 228:	00120213          	addi	tp,tp,1 # 1 <_start+0x1>
 22c:	00200293          	li	t0,2
 230:	fe5214e3          	bne	tp,t0,218 <test_19+0x4>
 234:	000043b7          	lui	t2,0x4
 238:	01300193          	li	gp,19
 23c:	0c731a63          	bne	t1,t2,310 <fail>

00000240 <test_20>:
 240:	00000213          	li	tp,0
 244:	00100093          	li	ra,1
 248:	01f09713          	slli	a4,ra,0x1f
 24c:	00000013          	nop
 250:	00000013          	nop
 254:	00070313          	mv	t1,a4
 258:	00120213          	addi	tp,tp,1 # 1 <_start+0x1>
 25c:	00200293          	li	t0,2
 260:	fe5212e3          	bne	tp,t0,244 <test_20+0x4>
 264:	800003b7          	lui	t2,0x80000
 268:	01400193          	li	gp,20
 26c:	0a731263          	bne	t1,t2,310 <fail>

00000270 <test_21>:
 270:	00000213          	li	tp,0
 274:	00100093          	li	ra,1
 278:	00709713          	slli	a4,ra,0x7
 27c:	00120213          	addi	tp,tp,1 # 1 <_start+0x1>
 280:	00200293          	li	t0,2
 284:	fe5218e3          	bne	tp,t0,274 <test_21+0x4>
 288:	08000393          	li	t2,128
 28c:	01500193          	li	gp,21
 290:	08771063          	bne	a4,t2,310 <fail>

00000294 <test_22>:
 294:	00000213          	li	tp,0
 298:	00100093          	li	ra,1
 29c:	00000013          	nop
 2a0:	00e09713          	slli	a4,ra,0xe
 2a4:	00120213          	addi	tp,tp,1 # 1 <_start+0x1>
 2a8:	00200293          	li	t0,2
 2ac:	fe5216e3          	bne	tp,t0,298 <test_22+0x4>
 2b0:	000043b7          	lui	t2,0x4
 2b4:	01600193          	li	gp,22
 2b8:	04771c63          	bne	a4,t2,310 <fail>

000002bc <test_23>:
 2bc:	00000213          	li	tp,0
 2c0:	00100093          	li	ra,1
 2c4:	00000013          	nop
 2c8:	00000013          	nop
 2cc:	01f09713          	slli	a4,ra,0x1f
 2d0:	00120213          	addi	tp,tp,1 # 1 <_start+0x1>
 2d4:	00200293          	li	t0,2
 2d8:	fe5214e3          	bne	tp,t0,2c0 <test_23+0x4>
 2dc:	800003b7          	lui	t2,0x80000
 2e0:	01700193          	li	gp,23
 2e4:	02771663          	bne	a4,t2,310 <fail>

000002e8 <test_24>:
 2e8:	01f01093          	slli	ra,zero,0x1f
 2ec:	00000393          	li	t2,0
 2f0:	01800193          	li	gp,24
 2f4:	00709e63          	bne	ra,t2,310 <fail>

000002f8 <test_25>:
 2f8:	02100093          	li	ra,33
 2fc:	01409013          	slli	zero,ra,0x14
 300:	00000393          	li	t2,0
 304:	01900193          	li	gp,25
 308:	00701463          	bne	zero,t2,310 <fail>
 30c:	00301663          	bne	zero,gp,318 <pass>

00000310 <fail>:
 310:	0ff0000f          	fence
 314:	00100073          	ebreak

00000318 <pass>:
 318:	d01e5537          	lui	a0,0xd01e5
 31c:	a5550513          	addi	a0,a0,-1451 # d01e4a55 <_end+0xd01e1a55>
 320:	00a02023          	sw	a0,0(zero) # 0 <_start>
 324:	0ff0000f          	fence
 328:	00100073          	ebreak
 32c:	d01e5537          	lui	a0,0xd01e5
 330:	a5550513          	addi	a0,a0,-1451 # d01e4a55 <_end+0xd01e1a55>
 334:	00a02023          	sw	a0,0(zero) # 0 <_start>
 338:	0ff0000f          	fence
 33c:	00100073          	ebreak
 340:	0000                	unimp
 342:	0000                	unimp

Disassembly of section .text:

00002000 <trap_vector>:
    2000:	0ff0000f          	fence
    2004:	00100073          	ebreak
