
output/andi.elf:     file format elf32-littleriscv


Disassembly of section .text.init:

00000000 <_start>:
   0:	00000093          	li	ra,0
   4:	00000113          	li	sp,0
   8:	00000193          	li	gp,0
   c:	00000213          	li	tp,0
  10:	00000293          	li	t0,0
  14:	00000313          	li	t1,0
  18:	00000393          	li	t2,0
  1c:	00000413          	li	s0,0
  20:	00000493          	li	s1,0
  24:	00000513          	li	a0,0
  28:	00000593          	li	a1,0
  2c:	00000613          	li	a2,0
  30:	00000693          	li	a3,0
  34:	00000713          	li	a4,0
  38:	00000793          	li	a5,0
  3c:	00000813          	li	a6,0
  40:	00000893          	li	a7,0
  44:	00000913          	li	s2,0
  48:	00000993          	li	s3,0
  4c:	00000a13          	li	s4,0
  50:	00000a93          	li	s5,0
  54:	00000b13          	li	s6,0
  58:	00000b93          	li	s7,0
  5c:	00000c13          	li	s8,0
  60:	00000c93          	li	s9,0
  64:	00000d13          	li	s10,0
  68:	00000d93          	li	s11,0
  6c:	00000e13          	li	t3,0
  70:	00000e93          	li	t4,0
  74:	00000f13          	li	t5,0
  78:	00000f93          	li	t6,0
  7c:	0080006f          	j	84 <reset_vector>

00000080 <trap_vector>:
  80:	00100073          	ebreak

00000084 <reset_vector>:
  84:	ff0100b7          	lui	ra,0xff010
  88:	f0008093          	addi	ra,ra,-256 # ff00ff00 <_end+0xff00df00>
  8c:	f0f0f713          	andi	a4,ra,-241
  90:	ff0103b7          	lui	t2,0xff010
  94:	f0038393          	addi	t2,t2,-256 # ff00ff00 <_end+0xff00df00>
  98:	00200193          	li	gp,2
  9c:	1a771463          	bne	a4,t2,244 <fail>

000000a0 <test_3>:
  a0:	0ff010b7          	lui	ra,0xff01
  a4:	ff008093          	addi	ra,ra,-16 # ff00ff0 <_end+0xfefeff0>
  a8:	0f00f713          	andi	a4,ra,240
  ac:	0f000393          	li	t2,240
  b0:	00300193          	li	gp,3
  b4:	18771863          	bne	a4,t2,244 <fail>

000000b8 <test_4>:
  b8:	00ff00b7          	lui	ra,0xff0
  bc:	0ff08093          	addi	ra,ra,255 # ff00ff <_end+0xfee0ff>
  c0:	70f0f713          	andi	a4,ra,1807
  c4:	00f00393          	li	t2,15
  c8:	00400193          	li	gp,4
  cc:	16771c63          	bne	a4,t2,244 <fail>

000000d0 <test_5>:
  d0:	f00ff0b7          	lui	ra,0xf00ff
  d4:	00f08093          	addi	ra,ra,15 # f00ff00f <_end+0xf00fd00f>
  d8:	0f00f713          	andi	a4,ra,240
  dc:	00000393          	li	t2,0
  e0:	00500193          	li	gp,5
  e4:	16771063          	bne	a4,t2,244 <fail>

000000e8 <test_6>:
  e8:	ff0100b7          	lui	ra,0xff010
  ec:	f0008093          	addi	ra,ra,-256 # ff00ff00 <_end+0xff00df00>
  f0:	0f00f093          	andi	ra,ra,240
  f4:	00000393          	li	t2,0
  f8:	00600193          	li	gp,6
  fc:	14709463          	bne	ra,t2,244 <fail>

00000100 <test_7>:
 100:	00000213          	li	tp,0
 104:	0ff010b7          	lui	ra,0xff01
 108:	ff008093          	addi	ra,ra,-16 # ff00ff0 <_end+0xfefeff0>
 10c:	70f0f713          	andi	a4,ra,1807
 110:	00070313          	mv	t1,a4
 114:	00120213          	addi	tp,tp,1 # 1 <_start+0x1>
 118:	00200293          	li	t0,2
 11c:	fe5214e3          	bne	tp,t0,104 <test_7+0x4>
 120:	70000393          	li	t2,1792
 124:	00700193          	li	gp,7
 128:	10731e63          	bne	t1,t2,244 <fail>

0000012c <test_8>:
 12c:	00000213          	li	tp,0
 130:	00ff00b7          	lui	ra,0xff0
 134:	0ff08093          	addi	ra,ra,255 # ff00ff <_end+0xfee0ff>
 138:	0f00f713          	andi	a4,ra,240
 13c:	00000013          	nop
 140:	00070313          	mv	t1,a4
 144:	00120213          	addi	tp,tp,1 # 1 <_start+0x1>
 148:	00200293          	li	t0,2
 14c:	fe5212e3          	bne	tp,t0,130 <test_8+0x4>
 150:	0f000393          	li	t2,240
 154:	00800193          	li	gp,8
 158:	0e731663          	bne	t1,t2,244 <fail>

0000015c <test_9>:
 15c:	00000213          	li	tp,0
 160:	f00ff0b7          	lui	ra,0xf00ff
 164:	00f08093          	addi	ra,ra,15 # f00ff00f <_end+0xf00fd00f>
 168:	f0f0f713          	andi	a4,ra,-241
 16c:	00000013          	nop
 170:	00000013          	nop
 174:	00070313          	mv	t1,a4
 178:	00120213          	addi	tp,tp,1 # 1 <_start+0x1>
 17c:	00200293          	li	t0,2
 180:	fe5210e3          	bne	tp,t0,160 <test_9+0x4>
 184:	f00ff3b7          	lui	t2,0xf00ff
 188:	00f38393          	addi	t2,t2,15 # f00ff00f <_end+0xf00fd00f>
 18c:	00900193          	li	gp,9
 190:	0a731a63          	bne	t1,t2,244 <fail>

00000194 <test_10>:
 194:	00000213          	li	tp,0
 198:	0ff010b7          	lui	ra,0xff01
 19c:	ff008093          	addi	ra,ra,-16 # ff00ff0 <_end+0xfefeff0>
 1a0:	70f0f713          	andi	a4,ra,1807
 1a4:	00120213          	addi	tp,tp,1 # 1 <_start+0x1>
 1a8:	00200293          	li	t0,2
 1ac:	fe5216e3          	bne	tp,t0,198 <test_10+0x4>
 1b0:	70000393          	li	t2,1792
 1b4:	00a00193          	li	gp,10
 1b8:	08771663          	bne	a4,t2,244 <fail>

000001bc <test_11>:
 1bc:	00000213          	li	tp,0
 1c0:	00ff00b7          	lui	ra,0xff0
 1c4:	0ff08093          	addi	ra,ra,255 # ff00ff <_end+0xfee0ff>
 1c8:	00000013          	nop
 1cc:	0f00f713          	andi	a4,ra,240
 1d0:	00120213          	addi	tp,tp,1 # 1 <_start+0x1>
 1d4:	00200293          	li	t0,2
 1d8:	fe5214e3          	bne	tp,t0,1c0 <test_11+0x4>
 1dc:	0f000393          	li	t2,240
 1e0:	00b00193          	li	gp,11
 1e4:	06771063          	bne	a4,t2,244 <fail>

000001e8 <test_12>:
 1e8:	00000213          	li	tp,0
 1ec:	f00ff0b7          	lui	ra,0xf00ff
 1f0:	00f08093          	addi	ra,ra,15 # f00ff00f <_end+0xf00fd00f>
 1f4:	00000013          	nop
 1f8:	00000013          	nop
 1fc:	70f0f713          	andi	a4,ra,1807
 200:	00120213          	addi	tp,tp,1 # 1 <_start+0x1>
 204:	00200293          	li	t0,2
 208:	fe5212e3          	bne	tp,t0,1ec <test_12+0x4>
 20c:	00f00393          	li	t2,15
 210:	00c00193          	li	gp,12
 214:	02771863          	bne	a4,t2,244 <fail>

00000218 <test_13>:
 218:	0f007093          	andi	ra,zero,240
 21c:	00000393          	li	t2,0
 220:	00d00193          	li	gp,13
 224:	02709063          	bne	ra,t2,244 <fail>

00000228 <test_14>:
 228:	00ff00b7          	lui	ra,0xff0
 22c:	0ff08093          	addi	ra,ra,255 # ff00ff <_end+0xfee0ff>
 230:	70f0f013          	andi	zero,ra,1807
 234:	00000393          	li	t2,0
 238:	00e00193          	li	gp,14
 23c:	00701463          	bne	zero,t2,244 <fail>
 240:	00301463          	bne	zero,gp,248 <pass>

00000244 <fail>:
 244:	00100073          	ebreak

00000248 <pass>:
 248:	d01e5537          	lui	a0,0xd01e5
 24c:	a5550513          	addi	a0,a0,-1451 # d01e4a55 <_end+0xd01e2a55>
 250:	00a02023          	sw	a0,0(zero) # 0 <_start>
 254:	00100073          	ebreak
 258:	0000                	unimp
 25a:	0000                	unimp
 25c:	0000                	unimp
 25e:	0000                	unimp
 260:	0000                	unimp
 262:	0000                	unimp
 264:	0000                	unimp
 266:	0000                	unimp
 268:	0000                	unimp
 26a:	0000                	unimp
 26c:	0000                	unimp
 26e:	0000                	unimp
 270:	0000                	unimp
 272:	0000                	unimp
 274:	0000                	unimp
 276:	0000                	unimp
 278:	0000                	unimp
 27a:	0000                	unimp
 27c:	0000                	unimp
 27e:	0000                	unimp
 280:	0000                	unimp
 282:	0000                	unimp
