
output/bgeu.elf:     file format elf32-littleriscv


Disassembly of section .text.init:

00000000 <_start>:
   0:	00000093          	li	ra,0
   4:	00000113          	li	sp,0
   8:	00000193          	li	gp,0
   c:	00000213          	li	tp,0
  10:	00000293          	li	t0,0
  14:	00000313          	li	t1,0
  18:	00000393          	li	t2,0
  1c:	00000413          	li	s0,0
  20:	00000493          	li	s1,0
  24:	00000513          	li	a0,0
  28:	00000593          	li	a1,0
  2c:	00000613          	li	a2,0
  30:	00000693          	li	a3,0
  34:	00000713          	li	a4,0
  38:	00000793          	li	a5,0
  3c:	00000813          	li	a6,0
  40:	00000893          	li	a7,0
  44:	00000913          	li	s2,0
  48:	00000993          	li	s3,0
  4c:	00000a13          	li	s4,0
  50:	00000a93          	li	s5,0
  54:	00000b13          	li	s6,0
  58:	00000b93          	li	s7,0
  5c:	00000c13          	li	s8,0
  60:	00000c93          	li	s9,0
  64:	00000d13          	li	s10,0
  68:	00000d93          	li	s11,0
  6c:	00000e13          	li	t3,0
  70:	00000e93          	li	t4,0
  74:	00000f13          	li	t5,0
  78:	00000f93          	li	t6,0
  7c:	0080006f          	j	84 <reset_vector>

00000080 <trap_vector>:
  80:	00100073          	ebreak

00000084 <reset_vector>:
  84:	00200193          	li	gp,2
  88:	00000093          	li	ra,0
  8c:	00000113          	li	sp,0
  90:	0020f663          	bgeu	ra,sp,9c <reset_vector+0x18>
  94:	34301263          	bne	zero,gp,3d8 <fail>
  98:	00301663          	bne	zero,gp,a4 <test_3>
  9c:	fe20fee3          	bgeu	ra,sp,98 <reset_vector+0x14>
  a0:	32301c63          	bne	zero,gp,3d8 <fail>

000000a4 <test_3>:
  a4:	00300193          	li	gp,3
  a8:	00100093          	li	ra,1
  ac:	00100113          	li	sp,1
  b0:	0020f663          	bgeu	ra,sp,bc <test_3+0x18>
  b4:	32301263          	bne	zero,gp,3d8 <fail>
  b8:	00301663          	bne	zero,gp,c4 <test_4>
  bc:	fe20fee3          	bgeu	ra,sp,b8 <test_3+0x14>
  c0:	30301c63          	bne	zero,gp,3d8 <fail>

000000c4 <test_4>:
  c4:	00400193          	li	gp,4
  c8:	fff00093          	li	ra,-1
  cc:	fff00113          	li	sp,-1
  d0:	0020f663          	bgeu	ra,sp,dc <test_4+0x18>
  d4:	30301263          	bne	zero,gp,3d8 <fail>
  d8:	00301663          	bne	zero,gp,e4 <test_5>
  dc:	fe20fee3          	bgeu	ra,sp,d8 <test_4+0x14>
  e0:	2e301c63          	bne	zero,gp,3d8 <fail>

000000e4 <test_5>:
  e4:	00500193          	li	gp,5
  e8:	00100093          	li	ra,1
  ec:	00000113          	li	sp,0
  f0:	0020f663          	bgeu	ra,sp,fc <test_5+0x18>
  f4:	2e301263          	bne	zero,gp,3d8 <fail>
  f8:	00301663          	bne	zero,gp,104 <test_6>
  fc:	fe20fee3          	bgeu	ra,sp,f8 <test_5+0x14>
 100:	2c301c63          	bne	zero,gp,3d8 <fail>

00000104 <test_6>:
 104:	00600193          	li	gp,6
 108:	fff00093          	li	ra,-1
 10c:	ffe00113          	li	sp,-2
 110:	0020f663          	bgeu	ra,sp,11c <test_6+0x18>
 114:	2c301263          	bne	zero,gp,3d8 <fail>
 118:	00301663          	bne	zero,gp,124 <test_7>
 11c:	fe20fee3          	bgeu	ra,sp,118 <test_6+0x14>
 120:	2a301c63          	bne	zero,gp,3d8 <fail>

00000124 <test_7>:
 124:	00700193          	li	gp,7
 128:	fff00093          	li	ra,-1
 12c:	00000113          	li	sp,0
 130:	0020f663          	bgeu	ra,sp,13c <test_7+0x18>
 134:	2a301263          	bne	zero,gp,3d8 <fail>
 138:	00301663          	bne	zero,gp,144 <test_8>
 13c:	fe20fee3          	bgeu	ra,sp,138 <test_7+0x14>
 140:	28301c63          	bne	zero,gp,3d8 <fail>

00000144 <test_8>:
 144:	00800193          	li	gp,8
 148:	00000093          	li	ra,0
 14c:	00100113          	li	sp,1
 150:	0020f463          	bgeu	ra,sp,158 <test_8+0x14>
 154:	00301463          	bne	zero,gp,15c <test_8+0x18>
 158:	28301063          	bne	zero,gp,3d8 <fail>
 15c:	fe20fee3          	bgeu	ra,sp,158 <test_8+0x14>

00000160 <test_9>:
 160:	00900193          	li	gp,9
 164:	ffe00093          	li	ra,-2
 168:	fff00113          	li	sp,-1
 16c:	0020f463          	bgeu	ra,sp,174 <test_9+0x14>
 170:	00301463          	bne	zero,gp,178 <test_9+0x18>
 174:	26301263          	bne	zero,gp,3d8 <fail>
 178:	fe20fee3          	bgeu	ra,sp,174 <test_9+0x14>

0000017c <test_10>:
 17c:	00a00193          	li	gp,10
 180:	00000093          	li	ra,0
 184:	fff00113          	li	sp,-1
 188:	0020f463          	bgeu	ra,sp,190 <test_10+0x14>
 18c:	00301463          	bne	zero,gp,194 <test_10+0x18>
 190:	24301463          	bne	zero,gp,3d8 <fail>
 194:	fe20fee3          	bgeu	ra,sp,190 <test_10+0x14>

00000198 <test_11>:
 198:	00b00193          	li	gp,11
 19c:	800000b7          	lui	ra,0x80000
 1a0:	fff08093          	addi	ra,ra,-1 # 7fffffff <_end+0x7fffdfff>
 1a4:	80000137          	lui	sp,0x80000
 1a8:	0020f463          	bgeu	ra,sp,1b0 <test_11+0x18>
 1ac:	00301463          	bne	zero,gp,1b4 <test_11+0x1c>
 1b0:	22301463          	bne	zero,gp,3d8 <fail>
 1b4:	fe20fee3          	bgeu	ra,sp,1b0 <test_11+0x18>

000001b8 <test_12>:
 1b8:	00c00193          	li	gp,12
 1bc:	00000213          	li	tp,0
 1c0:	f00000b7          	lui	ra,0xf0000
 1c4:	fff08093          	addi	ra,ra,-1 # efffffff <_end+0xefffdfff>
 1c8:	f0000137          	lui	sp,0xf0000
 1cc:	2020f663          	bgeu	ra,sp,3d8 <fail>
 1d0:	00120213          	addi	tp,tp,1 # 1 <_start+0x1>
 1d4:	00200293          	li	t0,2
 1d8:	fe5214e3          	bne	tp,t0,1c0 <test_12+0x8>

000001dc <test_13>:
 1dc:	00d00193          	li	gp,13
 1e0:	00000213          	li	tp,0
 1e4:	f00000b7          	lui	ra,0xf0000
 1e8:	fff08093          	addi	ra,ra,-1 # efffffff <_end+0xefffdfff>
 1ec:	f0000137          	lui	sp,0xf0000
 1f0:	00000013          	nop
 1f4:	1e20f263          	bgeu	ra,sp,3d8 <fail>
 1f8:	00120213          	addi	tp,tp,1 # 1 <_start+0x1>
 1fc:	00200293          	li	t0,2
 200:	fe5212e3          	bne	tp,t0,1e4 <test_13+0x8>

00000204 <test_14>:
 204:	00e00193          	li	gp,14
 208:	00000213          	li	tp,0
 20c:	f00000b7          	lui	ra,0xf0000
 210:	fff08093          	addi	ra,ra,-1 # efffffff <_end+0xefffdfff>
 214:	f0000137          	lui	sp,0xf0000
 218:	00000013          	nop
 21c:	00000013          	nop
 220:	1a20fc63          	bgeu	ra,sp,3d8 <fail>
 224:	00120213          	addi	tp,tp,1 # 1 <_start+0x1>
 228:	00200293          	li	t0,2
 22c:	fe5210e3          	bne	tp,t0,20c <test_14+0x8>

00000230 <test_15>:
 230:	00f00193          	li	gp,15
 234:	00000213          	li	tp,0
 238:	f00000b7          	lui	ra,0xf0000
 23c:	fff08093          	addi	ra,ra,-1 # efffffff <_end+0xefffdfff>
 240:	00000013          	nop
 244:	f0000137          	lui	sp,0xf0000
 248:	1820f863          	bgeu	ra,sp,3d8 <fail>
 24c:	00120213          	addi	tp,tp,1 # 1 <_start+0x1>
 250:	00200293          	li	t0,2
 254:	fe5212e3          	bne	tp,t0,238 <test_15+0x8>

00000258 <test_16>:
 258:	01000193          	li	gp,16
 25c:	00000213          	li	tp,0
 260:	f00000b7          	lui	ra,0xf0000
 264:	fff08093          	addi	ra,ra,-1 # efffffff <_end+0xefffdfff>
 268:	00000013          	nop
 26c:	f0000137          	lui	sp,0xf0000
 270:	00000013          	nop
 274:	1620f263          	bgeu	ra,sp,3d8 <fail>
 278:	00120213          	addi	tp,tp,1 # 1 <_start+0x1>
 27c:	00200293          	li	t0,2
 280:	fe5210e3          	bne	tp,t0,260 <test_16+0x8>

00000284 <test_17>:
 284:	01100193          	li	gp,17
 288:	00000213          	li	tp,0
 28c:	f00000b7          	lui	ra,0xf0000
 290:	fff08093          	addi	ra,ra,-1 # efffffff <_end+0xefffdfff>
 294:	00000013          	nop
 298:	00000013          	nop
 29c:	f0000137          	lui	sp,0xf0000
 2a0:	1220fc63          	bgeu	ra,sp,3d8 <fail>
 2a4:	00120213          	addi	tp,tp,1 # 1 <_start+0x1>
 2a8:	00200293          	li	t0,2
 2ac:	fe5210e3          	bne	tp,t0,28c <test_17+0x8>

000002b0 <test_18>:
 2b0:	01200193          	li	gp,18
 2b4:	00000213          	li	tp,0
 2b8:	f00000b7          	lui	ra,0xf0000
 2bc:	fff08093          	addi	ra,ra,-1 # efffffff <_end+0xefffdfff>
 2c0:	f0000137          	lui	sp,0xf0000
 2c4:	1020fa63          	bgeu	ra,sp,3d8 <fail>
 2c8:	00120213          	addi	tp,tp,1 # 1 <_start+0x1>
 2cc:	00200293          	li	t0,2
 2d0:	fe5214e3          	bne	tp,t0,2b8 <test_18+0x8>

000002d4 <test_19>:
 2d4:	01300193          	li	gp,19
 2d8:	00000213          	li	tp,0
 2dc:	f00000b7          	lui	ra,0xf0000
 2e0:	fff08093          	addi	ra,ra,-1 # efffffff <_end+0xefffdfff>
 2e4:	f0000137          	lui	sp,0xf0000
 2e8:	00000013          	nop
 2ec:	0e20f663          	bgeu	ra,sp,3d8 <fail>
 2f0:	00120213          	addi	tp,tp,1 # 1 <_start+0x1>
 2f4:	00200293          	li	t0,2
 2f8:	fe5212e3          	bne	tp,t0,2dc <test_19+0x8>

000002fc <test_20>:
 2fc:	01400193          	li	gp,20
 300:	00000213          	li	tp,0
 304:	f00000b7          	lui	ra,0xf0000
 308:	fff08093          	addi	ra,ra,-1 # efffffff <_end+0xefffdfff>
 30c:	f0000137          	lui	sp,0xf0000
 310:	00000013          	nop
 314:	00000013          	nop
 318:	0c20f063          	bgeu	ra,sp,3d8 <fail>
 31c:	00120213          	addi	tp,tp,1 # 1 <_start+0x1>
 320:	00200293          	li	t0,2
 324:	fe5210e3          	bne	tp,t0,304 <test_20+0x8>

00000328 <test_21>:
 328:	01500193          	li	gp,21
 32c:	00000213          	li	tp,0
 330:	f00000b7          	lui	ra,0xf0000
 334:	fff08093          	addi	ra,ra,-1 # efffffff <_end+0xefffdfff>
 338:	00000013          	nop
 33c:	f0000137          	lui	sp,0xf0000
 340:	0820fc63          	bgeu	ra,sp,3d8 <fail>
 344:	00120213          	addi	tp,tp,1 # 1 <_start+0x1>
 348:	00200293          	li	t0,2
 34c:	fe5212e3          	bne	tp,t0,330 <test_21+0x8>

00000350 <test_22>:
 350:	01600193          	li	gp,22
 354:	00000213          	li	tp,0
 358:	f00000b7          	lui	ra,0xf0000
 35c:	fff08093          	addi	ra,ra,-1 # efffffff <_end+0xefffdfff>
 360:	00000013          	nop
 364:	f0000137          	lui	sp,0xf0000
 368:	00000013          	nop
 36c:	0620f663          	bgeu	ra,sp,3d8 <fail>
 370:	00120213          	addi	tp,tp,1 # 1 <_start+0x1>
 374:	00200293          	li	t0,2
 378:	fe5210e3          	bne	tp,t0,358 <test_22+0x8>

0000037c <test_23>:
 37c:	01700193          	li	gp,23
 380:	00000213          	li	tp,0
 384:	f00000b7          	lui	ra,0xf0000
 388:	fff08093          	addi	ra,ra,-1 # efffffff <_end+0xefffdfff>
 38c:	00000013          	nop
 390:	00000013          	nop
 394:	f0000137          	lui	sp,0xf0000
 398:	0420f063          	bgeu	ra,sp,3d8 <fail>
 39c:	00120213          	addi	tp,tp,1 # 1 <_start+0x1>
 3a0:	00200293          	li	t0,2
 3a4:	fe5210e3          	bne	tp,t0,384 <test_23+0x8>

000003a8 <test_24>:
 3a8:	00100093          	li	ra,1
 3ac:	0000fa63          	bgeu	ra,zero,3c0 <test_24+0x18>
 3b0:	00108093          	addi	ra,ra,1
 3b4:	00108093          	addi	ra,ra,1
 3b8:	00108093          	addi	ra,ra,1
 3bc:	00108093          	addi	ra,ra,1
 3c0:	00108093          	addi	ra,ra,1
 3c4:	00108093          	addi	ra,ra,1
 3c8:	00300393          	li	t2,3
 3cc:	01800193          	li	gp,24
 3d0:	00709463          	bne	ra,t2,3d8 <fail>
 3d4:	00301463          	bne	zero,gp,3dc <pass>

000003d8 <fail>:
 3d8:	00100073          	ebreak

000003dc <pass>:
 3dc:	d01e5537          	lui	a0,0xd01e5
 3e0:	a5550513          	addi	a0,a0,-1451 # d01e4a55 <_end+0xd01e2a55>
 3e4:	00a02023          	sw	a0,0(zero) # 0 <_start>
 3e8:	00100073          	ebreak
 3ec:	0000                	unimp
 3ee:	0000                	unimp
 3f0:	0000                	unimp
 3f2:	0000                	unimp
 3f4:	0000                	unimp
 3f6:	0000                	unimp
 3f8:	0000                	unimp
 3fa:	0000                	unimp
 3fc:	0000                	unimp
 3fe:	0000                	unimp
 400:	0000                	unimp
 402:	0000                	unimp
