
output/bltu.elf:     file format elf32-littleriscv


Disassembly of section .text.init:

00000000 <_start>:
   0:	00000093          	li	ra,0
   4:	00000113          	li	sp,0
   8:	00000193          	li	gp,0
   c:	00000213          	li	tp,0
  10:	00000293          	li	t0,0
  14:	00000313          	li	t1,0
  18:	00000393          	li	t2,0
  1c:	00000413          	li	s0,0
  20:	00000493          	li	s1,0
  24:	00000513          	li	a0,0
  28:	00000593          	li	a1,0
  2c:	00000613          	li	a2,0
  30:	00000693          	li	a3,0
  34:	00000713          	li	a4,0
  38:	00000793          	li	a5,0
  3c:	00000813          	li	a6,0
  40:	00000893          	li	a7,0
  44:	00000913          	li	s2,0
  48:	00000993          	li	s3,0
  4c:	00000a13          	li	s4,0
  50:	00000a93          	li	s5,0
  54:	00000b13          	li	s6,0
  58:	00000b93          	li	s7,0
  5c:	00000c13          	li	s8,0
  60:	00000c93          	li	s9,0
  64:	00000d13          	li	s10,0
  68:	00000d93          	li	s11,0
  6c:	00000e13          	li	t3,0
  70:	00000e93          	li	t4,0
  74:	00000f13          	li	t5,0
  78:	00000f93          	li	t6,0
  7c:	0080006f          	j	84 <reset_vector>

00000080 <trap_vector>:
  80:	00100073          	ebreak

00000084 <reset_vector>:
  84:	00200193          	li	gp,2
  88:	00000093          	li	ra,0
  8c:	00100113          	li	sp,1
  90:	0020e663          	bltu	ra,sp,9c <reset_vector+0x18>
  94:	2e301263          	bne	zero,gp,378 <fail>
  98:	00301663          	bne	zero,gp,a4 <test_3>
  9c:	fe20eee3          	bltu	ra,sp,98 <reset_vector+0x14>
  a0:	2c301c63          	bne	zero,gp,378 <fail>

000000a4 <test_3>:
  a4:	00300193          	li	gp,3
  a8:	ffe00093          	li	ra,-2
  ac:	fff00113          	li	sp,-1
  b0:	0020e663          	bltu	ra,sp,bc <test_3+0x18>
  b4:	2c301263          	bne	zero,gp,378 <fail>
  b8:	00301663          	bne	zero,gp,c4 <test_4>
  bc:	fe20eee3          	bltu	ra,sp,b8 <test_3+0x14>
  c0:	2a301c63          	bne	zero,gp,378 <fail>

000000c4 <test_4>:
  c4:	00400193          	li	gp,4
  c8:	00000093          	li	ra,0
  cc:	fff00113          	li	sp,-1
  d0:	0020e663          	bltu	ra,sp,dc <test_4+0x18>
  d4:	2a301263          	bne	zero,gp,378 <fail>
  d8:	00301663          	bne	zero,gp,e4 <test_5>
  dc:	fe20eee3          	bltu	ra,sp,d8 <test_4+0x14>
  e0:	28301c63          	bne	zero,gp,378 <fail>

000000e4 <test_5>:
  e4:	00500193          	li	gp,5
  e8:	00100093          	li	ra,1
  ec:	00000113          	li	sp,0
  f0:	0020e463          	bltu	ra,sp,f8 <test_5+0x14>
  f4:	00301463          	bne	zero,gp,fc <test_5+0x18>
  f8:	28301063          	bne	zero,gp,378 <fail>
  fc:	fe20eee3          	bltu	ra,sp,f8 <test_5+0x14>

00000100 <test_6>:
 100:	00600193          	li	gp,6
 104:	fff00093          	li	ra,-1
 108:	ffe00113          	li	sp,-2
 10c:	0020e463          	bltu	ra,sp,114 <test_6+0x14>
 110:	00301463          	bne	zero,gp,118 <test_6+0x18>
 114:	26301263          	bne	zero,gp,378 <fail>
 118:	fe20eee3          	bltu	ra,sp,114 <test_6+0x14>

0000011c <test_7>:
 11c:	00700193          	li	gp,7
 120:	fff00093          	li	ra,-1
 124:	00000113          	li	sp,0
 128:	0020e463          	bltu	ra,sp,130 <test_7+0x14>
 12c:	00301463          	bne	zero,gp,134 <test_7+0x18>
 130:	24301463          	bne	zero,gp,378 <fail>
 134:	fe20eee3          	bltu	ra,sp,130 <test_7+0x14>

00000138 <test_8>:
 138:	00800193          	li	gp,8
 13c:	800000b7          	lui	ra,0x80000
 140:	80000137          	lui	sp,0x80000
 144:	fff10113          	addi	sp,sp,-1 # 7fffffff <_end+0x7fffdfff>
 148:	0020e463          	bltu	ra,sp,150 <test_8+0x18>
 14c:	00301463          	bne	zero,gp,154 <test_8+0x1c>
 150:	22301463          	bne	zero,gp,378 <fail>
 154:	fe20eee3          	bltu	ra,sp,150 <test_8+0x18>

00000158 <test_9>:
 158:	00900193          	li	gp,9
 15c:	00000213          	li	tp,0
 160:	f00000b7          	lui	ra,0xf0000
 164:	f0000137          	lui	sp,0xf0000
 168:	fff10113          	addi	sp,sp,-1 # efffffff <_end+0xefffdfff>
 16c:	2020e663          	bltu	ra,sp,378 <fail>
 170:	00120213          	addi	tp,tp,1 # 1 <_start+0x1>
 174:	00200293          	li	t0,2
 178:	fe5214e3          	bne	tp,t0,160 <test_9+0x8>

0000017c <test_10>:
 17c:	00a00193          	li	gp,10
 180:	00000213          	li	tp,0
 184:	f00000b7          	lui	ra,0xf0000
 188:	f0000137          	lui	sp,0xf0000
 18c:	fff10113          	addi	sp,sp,-1 # efffffff <_end+0xefffdfff>
 190:	00000013          	nop
 194:	1e20e263          	bltu	ra,sp,378 <fail>
 198:	00120213          	addi	tp,tp,1 # 1 <_start+0x1>
 19c:	00200293          	li	t0,2
 1a0:	fe5212e3          	bne	tp,t0,184 <test_10+0x8>

000001a4 <test_11>:
 1a4:	00b00193          	li	gp,11
 1a8:	00000213          	li	tp,0
 1ac:	f00000b7          	lui	ra,0xf0000
 1b0:	f0000137          	lui	sp,0xf0000
 1b4:	fff10113          	addi	sp,sp,-1 # efffffff <_end+0xefffdfff>
 1b8:	00000013          	nop
 1bc:	00000013          	nop
 1c0:	1a20ec63          	bltu	ra,sp,378 <fail>
 1c4:	00120213          	addi	tp,tp,1 # 1 <_start+0x1>
 1c8:	00200293          	li	t0,2
 1cc:	fe5210e3          	bne	tp,t0,1ac <test_11+0x8>

000001d0 <test_12>:
 1d0:	00c00193          	li	gp,12
 1d4:	00000213          	li	tp,0
 1d8:	f00000b7          	lui	ra,0xf0000
 1dc:	00000013          	nop
 1e0:	f0000137          	lui	sp,0xf0000
 1e4:	fff10113          	addi	sp,sp,-1 # efffffff <_end+0xefffdfff>
 1e8:	1820e863          	bltu	ra,sp,378 <fail>
 1ec:	00120213          	addi	tp,tp,1 # 1 <_start+0x1>
 1f0:	00200293          	li	t0,2
 1f4:	fe5212e3          	bne	tp,t0,1d8 <test_12+0x8>

000001f8 <test_13>:
 1f8:	00d00193          	li	gp,13
 1fc:	00000213          	li	tp,0
 200:	f00000b7          	lui	ra,0xf0000
 204:	00000013          	nop
 208:	f0000137          	lui	sp,0xf0000
 20c:	fff10113          	addi	sp,sp,-1 # efffffff <_end+0xefffdfff>
 210:	00000013          	nop
 214:	1620e263          	bltu	ra,sp,378 <fail>
 218:	00120213          	addi	tp,tp,1 # 1 <_start+0x1>
 21c:	00200293          	li	t0,2
 220:	fe5210e3          	bne	tp,t0,200 <test_13+0x8>

00000224 <test_14>:
 224:	00e00193          	li	gp,14
 228:	00000213          	li	tp,0
 22c:	f00000b7          	lui	ra,0xf0000
 230:	00000013          	nop
 234:	00000013          	nop
 238:	f0000137          	lui	sp,0xf0000
 23c:	fff10113          	addi	sp,sp,-1 # efffffff <_end+0xefffdfff>
 240:	1220ec63          	bltu	ra,sp,378 <fail>
 244:	00120213          	addi	tp,tp,1 # 1 <_start+0x1>
 248:	00200293          	li	t0,2
 24c:	fe5210e3          	bne	tp,t0,22c <test_14+0x8>

00000250 <test_15>:
 250:	00f00193          	li	gp,15
 254:	00000213          	li	tp,0
 258:	f00000b7          	lui	ra,0xf0000
 25c:	f0000137          	lui	sp,0xf0000
 260:	fff10113          	addi	sp,sp,-1 # efffffff <_end+0xefffdfff>
 264:	1020ea63          	bltu	ra,sp,378 <fail>
 268:	00120213          	addi	tp,tp,1 # 1 <_start+0x1>
 26c:	00200293          	li	t0,2
 270:	fe5214e3          	bne	tp,t0,258 <test_15+0x8>

00000274 <test_16>:
 274:	01000193          	li	gp,16
 278:	00000213          	li	tp,0
 27c:	f00000b7          	lui	ra,0xf0000
 280:	f0000137          	lui	sp,0xf0000
 284:	fff10113          	addi	sp,sp,-1 # efffffff <_end+0xefffdfff>
 288:	00000013          	nop
 28c:	0e20e663          	bltu	ra,sp,378 <fail>
 290:	00120213          	addi	tp,tp,1 # 1 <_start+0x1>
 294:	00200293          	li	t0,2
 298:	fe5212e3          	bne	tp,t0,27c <test_16+0x8>

0000029c <test_17>:
 29c:	01100193          	li	gp,17
 2a0:	00000213          	li	tp,0
 2a4:	f00000b7          	lui	ra,0xf0000
 2a8:	f0000137          	lui	sp,0xf0000
 2ac:	fff10113          	addi	sp,sp,-1 # efffffff <_end+0xefffdfff>
 2b0:	00000013          	nop
 2b4:	00000013          	nop
 2b8:	0c20e063          	bltu	ra,sp,378 <fail>
 2bc:	00120213          	addi	tp,tp,1 # 1 <_start+0x1>
 2c0:	00200293          	li	t0,2
 2c4:	fe5210e3          	bne	tp,t0,2a4 <test_17+0x8>

000002c8 <test_18>:
 2c8:	01200193          	li	gp,18
 2cc:	00000213          	li	tp,0
 2d0:	f00000b7          	lui	ra,0xf0000
 2d4:	00000013          	nop
 2d8:	f0000137          	lui	sp,0xf0000
 2dc:	fff10113          	addi	sp,sp,-1 # efffffff <_end+0xefffdfff>
 2e0:	0820ec63          	bltu	ra,sp,378 <fail>
 2e4:	00120213          	addi	tp,tp,1 # 1 <_start+0x1>
 2e8:	00200293          	li	t0,2
 2ec:	fe5212e3          	bne	tp,t0,2d0 <test_18+0x8>

000002f0 <test_19>:
 2f0:	01300193          	li	gp,19
 2f4:	00000213          	li	tp,0
 2f8:	f00000b7          	lui	ra,0xf0000
 2fc:	00000013          	nop
 300:	f0000137          	lui	sp,0xf0000
 304:	fff10113          	addi	sp,sp,-1 # efffffff <_end+0xefffdfff>
 308:	00000013          	nop
 30c:	0620e663          	bltu	ra,sp,378 <fail>
 310:	00120213          	addi	tp,tp,1 # 1 <_start+0x1>
 314:	00200293          	li	t0,2
 318:	fe5210e3          	bne	tp,t0,2f8 <test_19+0x8>

0000031c <test_20>:
 31c:	01400193          	li	gp,20
 320:	00000213          	li	tp,0
 324:	f00000b7          	lui	ra,0xf0000
 328:	00000013          	nop
 32c:	00000013          	nop
 330:	f0000137          	lui	sp,0xf0000
 334:	fff10113          	addi	sp,sp,-1 # efffffff <_end+0xefffdfff>
 338:	0420e063          	bltu	ra,sp,378 <fail>
 33c:	00120213          	addi	tp,tp,1 # 1 <_start+0x1>
 340:	00200293          	li	t0,2
 344:	fe5210e3          	bne	tp,t0,324 <test_20+0x8>

00000348 <test_21>:
 348:	00100093          	li	ra,1
 34c:	00106a63          	bltu	zero,ra,360 <test_21+0x18>
 350:	00108093          	addi	ra,ra,1 # f0000001 <_end+0xefffe001>
 354:	00108093          	addi	ra,ra,1
 358:	00108093          	addi	ra,ra,1
 35c:	00108093          	addi	ra,ra,1
 360:	00108093          	addi	ra,ra,1
 364:	00108093          	addi	ra,ra,1
 368:	00300393          	li	t2,3
 36c:	01500193          	li	gp,21
 370:	00709463          	bne	ra,t2,378 <fail>
 374:	00301463          	bne	zero,gp,37c <pass>

00000378 <fail>:
 378:	00100073          	ebreak

0000037c <pass>:
 37c:	d01e5537          	lui	a0,0xd01e5
 380:	a5550513          	addi	a0,a0,-1451 # d01e4a55 <_end+0xd01e2a55>
 384:	00a02023          	sw	a0,0(zero) # 0 <_start>
 388:	00100073          	ebreak
 38c:	0000                	unimp
 38e:	0000                	unimp
 390:	0000                	unimp
 392:	0000                	unimp
 394:	0000                	unimp
 396:	0000                	unimp
 398:	0000                	unimp
 39a:	0000                	unimp
 39c:	0000                	unimp
 39e:	0000                	unimp
 3a0:	0000                	unimp
 3a2:	0000                	unimp
 3a4:	0000                	unimp
 3a6:	0000                	unimp
 3a8:	0000                	unimp
 3aa:	0000                	unimp
 3ac:	0000                	unimp
 3ae:	0000                	unimp
 3b0:	0000                	unimp
 3b2:	0000                	unimp
 3b4:	0000                	unimp
 3b6:	0000                	unimp
 3b8:	0000                	unimp
 3ba:	0000                	unimp
 3bc:	0000                	unimp
 3be:	0000                	unimp
 3c0:	0000                	unimp
 3c2:	0000                	unimp
