
output/jal.elf:     file format elf32-littleriscv


Disassembly of section .text.init:

00000000 <_start>:
   0:	00000093          	li	ra,0
   4:	00000113          	li	sp,0
   8:	00000193          	li	gp,0
   c:	00000213          	li	tp,0
  10:	00000293          	li	t0,0
  14:	00000313          	li	t1,0
  18:	00000393          	li	t2,0
  1c:	00000413          	li	s0,0
  20:	00000493          	li	s1,0
  24:	00000513          	li	a0,0
  28:	00000593          	li	a1,0
  2c:	00000613          	li	a2,0
  30:	00000693          	li	a3,0
  34:	00000713          	li	a4,0
  38:	00000793          	li	a5,0
  3c:	00000813          	li	a6,0
  40:	00000893          	li	a7,0
  44:	00000913          	li	s2,0
  48:	00000993          	li	s3,0
  4c:	00000a13          	li	s4,0
  50:	00000a93          	li	s5,0
  54:	00000b13          	li	s6,0
  58:	00000b93          	li	s7,0
  5c:	00000c13          	li	s8,0
  60:	00000c93          	li	s9,0
  64:	00000d13          	li	s10,0
  68:	00000d93          	li	s11,0
  6c:	00000e13          	li	t3,0
  70:	00000e93          	li	t4,0
  74:	00000f13          	li	t5,0
  78:	00000f93          	li	t6,0
  7c:	0080006f          	j	84 <reset_vector>

00000080 <trap_vector>:
  80:	00100073          	ebreak

00000084 <reset_vector>:
  84:	00200193          	li	gp,2
  88:	00000093          	li	ra,0
  8c:	0100026f          	jal	tp,9c <target_2>

00000090 <linkaddr_2>:
  90:	00000013          	nop
  94:	00000013          	nop
  98:	0400006f          	j	d8 <fail>

0000009c <target_2>:
  9c:	00000117          	auipc	sp,0x0
  a0:	ff410113          	addi	sp,sp,-12 # 90 <linkaddr_2>
  a4:	02411a63          	bne	sp,tp,d8 <fail>

000000a8 <test_3>:
  a8:	00100093          	li	ra,1
  ac:	0140006f          	j	c0 <test_3+0x18>
  b0:	00108093          	addi	ra,ra,1
  b4:	00108093          	addi	ra,ra,1
  b8:	00108093          	addi	ra,ra,1
  bc:	00108093          	addi	ra,ra,1
  c0:	00108093          	addi	ra,ra,1
  c4:	00108093          	addi	ra,ra,1
  c8:	00300393          	li	t2,3
  cc:	00300193          	li	gp,3
  d0:	00709463          	bne	ra,t2,d8 <fail>
  d4:	00301463          	bne	zero,gp,dc <pass>

000000d8 <fail>:
  d8:	00100073          	ebreak

000000dc <pass>:
  dc:	d01e5537          	lui	a0,0xd01e5
  e0:	a5550513          	addi	a0,a0,-1451 # d01e4a55 <_end+0xd01e2a55>
  e4:	00a02023          	sw	a0,0(zero) # 0 <_start>
  e8:	00100073          	ebreak
  ec:	0000                	unimp
  ee:	0000                	unimp
  f0:	0000                	unimp
  f2:	0000                	unimp
  f4:	0000                	unimp
  f6:	0000                	unimp
  f8:	0000                	unimp
  fa:	0000                	unimp
  fc:	0000                	unimp
  fe:	0000                	unimp
 100:	0000                	unimp
 102:	0000                	unimp
