
output/lb.elf:     file format elf32-littleriscv


Disassembly of section .text.init:

00000000 <_start>:
   0:	00000093          	li	ra,0
   4:	00000113          	li	sp,0
   8:	00000193          	li	gp,0
   c:	00000213          	li	tp,0
  10:	00000293          	li	t0,0
  14:	00000313          	li	t1,0
  18:	00000393          	li	t2,0
  1c:	00000413          	li	s0,0
  20:	00000493          	li	s1,0
  24:	00000513          	li	a0,0
  28:	00000593          	li	a1,0
  2c:	00000613          	li	a2,0
  30:	00000693          	li	a3,0
  34:	00000713          	li	a4,0
  38:	00000793          	li	a5,0
  3c:	00000813          	li	a6,0
  40:	00000893          	li	a7,0
  44:	00000913          	li	s2,0
  48:	00000993          	li	s3,0
  4c:	00000a13          	li	s4,0
  50:	00000a93          	li	s5,0
  54:	00000b13          	li	s6,0
  58:	00000b93          	li	s7,0
  5c:	00000c13          	li	s8,0
  60:	00000c93          	li	s9,0
  64:	00000d13          	li	s10,0
  68:	00000d93          	li	s11,0
  6c:	00000e13          	li	t3,0
  70:	00000e93          	li	t4,0
  74:	00000f13          	li	t5,0
  78:	00000f93          	li	t6,0
  7c:	0080006f          	j	84 <reset_vector>

00000080 <trap_vector>:
  80:	00100073          	ebreak

00000084 <reset_vector>:
  84:	00002097          	auipc	ra,0x2
  88:	f7c08093          	addi	ra,ra,-132 # 2000 <begin_signature>
  8c:	00008703          	lb	a4,0(ra)
  90:	fff00393          	li	t2,-1
  94:	00200193          	li	gp,2
  98:	22771c63          	bne	a4,t2,2d0 <fail>

0000009c <test_3>:
  9c:	00002097          	auipc	ra,0x2
  a0:	f6408093          	addi	ra,ra,-156 # 2000 <begin_signature>
  a4:	00108703          	lb	a4,1(ra)
  a8:	00000393          	li	t2,0
  ac:	00300193          	li	gp,3
  b0:	22771063          	bne	a4,t2,2d0 <fail>

000000b4 <test_4>:
  b4:	00002097          	auipc	ra,0x2
  b8:	f4c08093          	addi	ra,ra,-180 # 2000 <begin_signature>
  bc:	00208703          	lb	a4,2(ra)
  c0:	ff000393          	li	t2,-16
  c4:	00400193          	li	gp,4
  c8:	20771463          	bne	a4,t2,2d0 <fail>

000000cc <test_5>:
  cc:	00002097          	auipc	ra,0x2
  d0:	f3408093          	addi	ra,ra,-204 # 2000 <begin_signature>
  d4:	00308703          	lb	a4,3(ra)
  d8:	00f00393          	li	t2,15
  dc:	00500193          	li	gp,5
  e0:	1e771863          	bne	a4,t2,2d0 <fail>

000000e4 <test_6>:
  e4:	00002097          	auipc	ra,0x2
  e8:	f1f08093          	addi	ra,ra,-225 # 2003 <tdat4>
  ec:	ffd08703          	lb	a4,-3(ra)
  f0:	fff00393          	li	t2,-1
  f4:	00600193          	li	gp,6
  f8:	1c771c63          	bne	a4,t2,2d0 <fail>

000000fc <test_7>:
  fc:	00002097          	auipc	ra,0x2
 100:	f0708093          	addi	ra,ra,-249 # 2003 <tdat4>
 104:	ffe08703          	lb	a4,-2(ra)
 108:	00000393          	li	t2,0
 10c:	00700193          	li	gp,7
 110:	1c771063          	bne	a4,t2,2d0 <fail>

00000114 <test_8>:
 114:	00002097          	auipc	ra,0x2
 118:	eef08093          	addi	ra,ra,-273 # 2003 <tdat4>
 11c:	fff08703          	lb	a4,-1(ra)
 120:	ff000393          	li	t2,-16
 124:	00800193          	li	gp,8
 128:	1a771463          	bne	a4,t2,2d0 <fail>

0000012c <test_9>:
 12c:	00002097          	auipc	ra,0x2
 130:	ed708093          	addi	ra,ra,-297 # 2003 <tdat4>
 134:	00008703          	lb	a4,0(ra)
 138:	00f00393          	li	t2,15
 13c:	00900193          	li	gp,9
 140:	18771863          	bne	a4,t2,2d0 <fail>

00000144 <test_10>:
 144:	00002097          	auipc	ra,0x2
 148:	ebc08093          	addi	ra,ra,-324 # 2000 <begin_signature>
 14c:	fe008093          	addi	ra,ra,-32
 150:	02008283          	lb	t0,32(ra)
 154:	fff00393          	li	t2,-1
 158:	00a00193          	li	gp,10
 15c:	16729a63          	bne	t0,t2,2d0 <fail>

00000160 <test_11>:
 160:	00002097          	auipc	ra,0x2
 164:	ea008093          	addi	ra,ra,-352 # 2000 <begin_signature>
 168:	ffa08093          	addi	ra,ra,-6
 16c:	00708283          	lb	t0,7(ra)
 170:	00000393          	li	t2,0
 174:	00b00193          	li	gp,11
 178:	14729c63          	bne	t0,t2,2d0 <fail>

0000017c <test_12>:
 17c:	00c00193          	li	gp,12
 180:	00000213          	li	tp,0
 184:	00002097          	auipc	ra,0x2
 188:	e7d08093          	addi	ra,ra,-387 # 2001 <tdat2>
 18c:	00108703          	lb	a4,1(ra)
 190:	00070313          	mv	t1,a4
 194:	ff000393          	li	t2,-16
 198:	12731c63          	bne	t1,t2,2d0 <fail>
 19c:	00120213          	addi	tp,tp,1 # 1 <_start+0x1>
 1a0:	00200293          	li	t0,2
 1a4:	fe5210e3          	bne	tp,t0,184 <test_12+0x8>

000001a8 <test_13>:
 1a8:	00d00193          	li	gp,13
 1ac:	00000213          	li	tp,0
 1b0:	00002097          	auipc	ra,0x2
 1b4:	e5208093          	addi	ra,ra,-430 # 2002 <tdat3>
 1b8:	00108703          	lb	a4,1(ra)
 1bc:	00000013          	nop
 1c0:	00070313          	mv	t1,a4
 1c4:	00f00393          	li	t2,15
 1c8:	10731463          	bne	t1,t2,2d0 <fail>
 1cc:	00120213          	addi	tp,tp,1 # 1 <_start+0x1>
 1d0:	00200293          	li	t0,2
 1d4:	fc521ee3          	bne	tp,t0,1b0 <test_13+0x8>

000001d8 <test_14>:
 1d8:	00e00193          	li	gp,14
 1dc:	00000213          	li	tp,0
 1e0:	00002097          	auipc	ra,0x2
 1e4:	e2008093          	addi	ra,ra,-480 # 2000 <begin_signature>
 1e8:	00108703          	lb	a4,1(ra)
 1ec:	00000013          	nop
 1f0:	00000013          	nop
 1f4:	00070313          	mv	t1,a4
 1f8:	00000393          	li	t2,0
 1fc:	0c731a63          	bne	t1,t2,2d0 <fail>
 200:	00120213          	addi	tp,tp,1 # 1 <_start+0x1>
 204:	00200293          	li	t0,2
 208:	fc521ce3          	bne	tp,t0,1e0 <test_14+0x8>

0000020c <test_15>:
 20c:	00f00193          	li	gp,15
 210:	00000213          	li	tp,0
 214:	00002097          	auipc	ra,0x2
 218:	ded08093          	addi	ra,ra,-531 # 2001 <tdat2>
 21c:	00108703          	lb	a4,1(ra)
 220:	ff000393          	li	t2,-16
 224:	0a771663          	bne	a4,t2,2d0 <fail>
 228:	00120213          	addi	tp,tp,1 # 1 <_start+0x1>
 22c:	00200293          	li	t0,2
 230:	fe5212e3          	bne	tp,t0,214 <test_15+0x8>

00000234 <test_16>:
 234:	01000193          	li	gp,16
 238:	00000213          	li	tp,0
 23c:	00002097          	auipc	ra,0x2
 240:	dc608093          	addi	ra,ra,-570 # 2002 <tdat3>
 244:	00000013          	nop
 248:	00108703          	lb	a4,1(ra)
 24c:	00f00393          	li	t2,15
 250:	08771063          	bne	a4,t2,2d0 <fail>
 254:	00120213          	addi	tp,tp,1 # 1 <_start+0x1>
 258:	00200293          	li	t0,2
 25c:	fe5210e3          	bne	tp,t0,23c <test_16+0x8>

00000260 <test_17>:
 260:	01100193          	li	gp,17
 264:	00000213          	li	tp,0
 268:	00002097          	auipc	ra,0x2
 26c:	d9808093          	addi	ra,ra,-616 # 2000 <begin_signature>
 270:	00000013          	nop
 274:	00000013          	nop
 278:	00108703          	lb	a4,1(ra)
 27c:	00000393          	li	t2,0
 280:	04771863          	bne	a4,t2,2d0 <fail>
 284:	00120213          	addi	tp,tp,1 # 1 <_start+0x1>
 288:	00200293          	li	t0,2
 28c:	fc521ee3          	bne	tp,t0,268 <test_17+0x8>

00000290 <test_18>:
 290:	00002297          	auipc	t0,0x2
 294:	d7028293          	addi	t0,t0,-656 # 2000 <begin_signature>
 298:	00028103          	lb	sp,0(t0)
 29c:	00200113          	li	sp,2
 2a0:	00200393          	li	t2,2
 2a4:	01200193          	li	gp,18
 2a8:	02711463          	bne	sp,t2,2d0 <fail>

000002ac <test_19>:
 2ac:	00002297          	auipc	t0,0x2
 2b0:	d5428293          	addi	t0,t0,-684 # 2000 <begin_signature>
 2b4:	00028103          	lb	sp,0(t0)
 2b8:	00000013          	nop
 2bc:	00200113          	li	sp,2
 2c0:	00200393          	li	t2,2
 2c4:	01300193          	li	gp,19
 2c8:	00711463          	bne	sp,t2,2d0 <fail>
 2cc:	00301463          	bne	zero,gp,2d4 <pass>

000002d0 <fail>:
 2d0:	00100073          	ebreak

000002d4 <pass>:
 2d4:	d01e5537          	lui	a0,0xd01e5
 2d8:	a5550513          	addi	a0,a0,-1451 # d01e4a55 <_end+0xd01e2a45>
 2dc:	00a02023          	sw	a0,0(zero) # 0 <_start>
 2e0:	00100073          	ebreak
 2e4:	0000                	unimp
 2e6:	0000                	unimp
 2e8:	0000                	unimp
 2ea:	0000                	unimp
 2ec:	0000                	unimp
 2ee:	0000                	unimp
 2f0:	0000                	unimp
 2f2:	0000                	unimp
 2f4:	0000                	unimp
 2f6:	0000                	unimp
 2f8:	0000                	unimp
 2fa:	0000                	unimp
 2fc:	0000                	unimp
 2fe:	0000                	unimp
 300:	0000                	unimp
 302:	0000                	unimp

Disassembly of section .data:

00002000 <begin_signature>:
    2000:	                	0xff

00002001 <tdat2>:
    2001:	                	fsw	fs0,32(s0)

00002002 <tdat3>:
    2002:	                	addi	a2,sp,988

00002003 <tdat4>:
    2003:	0000000f          	fence	unknown,unknown
    2007:	0000                	unimp
    2009:	0000                	unimp
    200b:	0000                	unimp
    200d:	0000                	unimp
    200f:	00              	Address 0x000000000000200f is out of bounds.

