
output/lb.elf:     file format elf32-littleriscv


Disassembly of section .text.init:

00000000 <_start>:
   0:	00000093          	li	ra,0
   4:	00000113          	li	sp,0
   8:	00000193          	li	gp,0
   c:	00000213          	li	tp,0
  10:	00000293          	li	t0,0
  14:	00000313          	li	t1,0
  18:	00000393          	li	t2,0
  1c:	00000413          	li	s0,0
  20:	00000493          	li	s1,0
  24:	00000513          	li	a0,0
  28:	00000593          	li	a1,0
  2c:	00000613          	li	a2,0
  30:	00000693          	li	a3,0
  34:	00000713          	li	a4,0
  38:	00000793          	li	a5,0
  3c:	00000813          	li	a6,0
  40:	00000893          	li	a7,0
  44:	00000913          	li	s2,0
  48:	00000993          	li	s3,0
  4c:	00000a13          	li	s4,0
  50:	00000a93          	li	s5,0
  54:	00000b13          	li	s6,0
  58:	00000b93          	li	s7,0
  5c:	00000c13          	li	s8,0
  60:	00000c93          	li	s9,0
  64:	00000d13          	li	s10,0
  68:	00000d93          	li	s11,0
  6c:	00000e13          	li	t3,0
  70:	00000e93          	li	t4,0
  74:	00000f13          	li	t5,0
  78:	00000f93          	li	t6,0
  7c:	00002297          	auipc	t0,0x2
  80:	f8428293          	addi	t0,t0,-124 # 2000 <trap_vector>
  84:	30529073          	csrw	mtvec,t0
  88:	0040006f          	j	8c <reset_vector>

0000008c <reset_vector>:
  8c:	00003097          	auipc	ra,0x3
  90:	f7408093          	addi	ra,ra,-140 # 3000 <begin_signature>
  94:	00008703          	lb	a4,0(ra)
  98:	fff00393          	li	t2,-1
  9c:	00200193          	li	gp,2
  a0:	22771c63          	bne	a4,t2,2d8 <fail>

000000a4 <test_3>:
  a4:	00003097          	auipc	ra,0x3
  a8:	f5c08093          	addi	ra,ra,-164 # 3000 <begin_signature>
  ac:	00108703          	lb	a4,1(ra)
  b0:	00000393          	li	t2,0
  b4:	00300193          	li	gp,3
  b8:	22771063          	bne	a4,t2,2d8 <fail>

000000bc <test_4>:
  bc:	00003097          	auipc	ra,0x3
  c0:	f4408093          	addi	ra,ra,-188 # 3000 <begin_signature>
  c4:	00208703          	lb	a4,2(ra)
  c8:	ff000393          	li	t2,-16
  cc:	00400193          	li	gp,4
  d0:	20771463          	bne	a4,t2,2d8 <fail>

000000d4 <test_5>:
  d4:	00003097          	auipc	ra,0x3
  d8:	f2c08093          	addi	ra,ra,-212 # 3000 <begin_signature>
  dc:	00308703          	lb	a4,3(ra)
  e0:	00f00393          	li	t2,15
  e4:	00500193          	li	gp,5
  e8:	1e771863          	bne	a4,t2,2d8 <fail>

000000ec <test_6>:
  ec:	00003097          	auipc	ra,0x3
  f0:	f1708093          	addi	ra,ra,-233 # 3003 <tdat4>
  f4:	ffd08703          	lb	a4,-3(ra)
  f8:	fff00393          	li	t2,-1
  fc:	00600193          	li	gp,6
 100:	1c771c63          	bne	a4,t2,2d8 <fail>

00000104 <test_7>:
 104:	00003097          	auipc	ra,0x3
 108:	eff08093          	addi	ra,ra,-257 # 3003 <tdat4>
 10c:	ffe08703          	lb	a4,-2(ra)
 110:	00000393          	li	t2,0
 114:	00700193          	li	gp,7
 118:	1c771063          	bne	a4,t2,2d8 <fail>

0000011c <test_8>:
 11c:	00003097          	auipc	ra,0x3
 120:	ee708093          	addi	ra,ra,-281 # 3003 <tdat4>
 124:	fff08703          	lb	a4,-1(ra)
 128:	ff000393          	li	t2,-16
 12c:	00800193          	li	gp,8
 130:	1a771463          	bne	a4,t2,2d8 <fail>

00000134 <test_9>:
 134:	00003097          	auipc	ra,0x3
 138:	ecf08093          	addi	ra,ra,-305 # 3003 <tdat4>
 13c:	00008703          	lb	a4,0(ra)
 140:	00f00393          	li	t2,15
 144:	00900193          	li	gp,9
 148:	18771863          	bne	a4,t2,2d8 <fail>

0000014c <test_10>:
 14c:	00003097          	auipc	ra,0x3
 150:	eb408093          	addi	ra,ra,-332 # 3000 <begin_signature>
 154:	fe008093          	addi	ra,ra,-32
 158:	02008283          	lb	t0,32(ra)
 15c:	fff00393          	li	t2,-1
 160:	00a00193          	li	gp,10
 164:	16729a63          	bne	t0,t2,2d8 <fail>

00000168 <test_11>:
 168:	00003097          	auipc	ra,0x3
 16c:	e9808093          	addi	ra,ra,-360 # 3000 <begin_signature>
 170:	ffa08093          	addi	ra,ra,-6
 174:	00708283          	lb	t0,7(ra)
 178:	00000393          	li	t2,0
 17c:	00b00193          	li	gp,11
 180:	14729c63          	bne	t0,t2,2d8 <fail>

00000184 <test_12>:
 184:	00c00193          	li	gp,12
 188:	00000213          	li	tp,0
 18c:	00003097          	auipc	ra,0x3
 190:	e7508093          	addi	ra,ra,-395 # 3001 <tdat2>
 194:	00108703          	lb	a4,1(ra)
 198:	00070313          	mv	t1,a4
 19c:	ff000393          	li	t2,-16
 1a0:	12731c63          	bne	t1,t2,2d8 <fail>
 1a4:	00120213          	addi	tp,tp,1 # 1 <_start+0x1>
 1a8:	00200293          	li	t0,2
 1ac:	fe5210e3          	bne	tp,t0,18c <test_12+0x8>

000001b0 <test_13>:
 1b0:	00d00193          	li	gp,13
 1b4:	00000213          	li	tp,0
 1b8:	00003097          	auipc	ra,0x3
 1bc:	e4a08093          	addi	ra,ra,-438 # 3002 <tdat3>
 1c0:	00108703          	lb	a4,1(ra)
 1c4:	00000013          	nop
 1c8:	00070313          	mv	t1,a4
 1cc:	00f00393          	li	t2,15
 1d0:	10731463          	bne	t1,t2,2d8 <fail>
 1d4:	00120213          	addi	tp,tp,1 # 1 <_start+0x1>
 1d8:	00200293          	li	t0,2
 1dc:	fc521ee3          	bne	tp,t0,1b8 <test_13+0x8>

000001e0 <test_14>:
 1e0:	00e00193          	li	gp,14
 1e4:	00000213          	li	tp,0
 1e8:	00003097          	auipc	ra,0x3
 1ec:	e1808093          	addi	ra,ra,-488 # 3000 <begin_signature>
 1f0:	00108703          	lb	a4,1(ra)
 1f4:	00000013          	nop
 1f8:	00000013          	nop
 1fc:	00070313          	mv	t1,a4
 200:	00000393          	li	t2,0
 204:	0c731a63          	bne	t1,t2,2d8 <fail>
 208:	00120213          	addi	tp,tp,1 # 1 <_start+0x1>
 20c:	00200293          	li	t0,2
 210:	fc521ce3          	bne	tp,t0,1e8 <test_14+0x8>

00000214 <test_15>:
 214:	00f00193          	li	gp,15
 218:	00000213          	li	tp,0
 21c:	00003097          	auipc	ra,0x3
 220:	de508093          	addi	ra,ra,-539 # 3001 <tdat2>
 224:	00108703          	lb	a4,1(ra)
 228:	ff000393          	li	t2,-16
 22c:	0a771663          	bne	a4,t2,2d8 <fail>
 230:	00120213          	addi	tp,tp,1 # 1 <_start+0x1>
 234:	00200293          	li	t0,2
 238:	fe5212e3          	bne	tp,t0,21c <test_15+0x8>

0000023c <test_16>:
 23c:	01000193          	li	gp,16
 240:	00000213          	li	tp,0
 244:	00003097          	auipc	ra,0x3
 248:	dbe08093          	addi	ra,ra,-578 # 3002 <tdat3>
 24c:	00000013          	nop
 250:	00108703          	lb	a4,1(ra)
 254:	00f00393          	li	t2,15
 258:	08771063          	bne	a4,t2,2d8 <fail>
 25c:	00120213          	addi	tp,tp,1 # 1 <_start+0x1>
 260:	00200293          	li	t0,2
 264:	fe5210e3          	bne	tp,t0,244 <test_16+0x8>

00000268 <test_17>:
 268:	01100193          	li	gp,17
 26c:	00000213          	li	tp,0
 270:	00003097          	auipc	ra,0x3
 274:	d9008093          	addi	ra,ra,-624 # 3000 <begin_signature>
 278:	00000013          	nop
 27c:	00000013          	nop
 280:	00108703          	lb	a4,1(ra)
 284:	00000393          	li	t2,0
 288:	04771863          	bne	a4,t2,2d8 <fail>
 28c:	00120213          	addi	tp,tp,1 # 1 <_start+0x1>
 290:	00200293          	li	t0,2
 294:	fc521ee3          	bne	tp,t0,270 <test_17+0x8>

00000298 <test_18>:
 298:	00003297          	auipc	t0,0x3
 29c:	d6828293          	addi	t0,t0,-664 # 3000 <begin_signature>
 2a0:	00028103          	lb	sp,0(t0)
 2a4:	00200113          	li	sp,2
 2a8:	00200393          	li	t2,2
 2ac:	01200193          	li	gp,18
 2b0:	02711463          	bne	sp,t2,2d8 <fail>

000002b4 <test_19>:
 2b4:	00003297          	auipc	t0,0x3
 2b8:	d4c28293          	addi	t0,t0,-692 # 3000 <begin_signature>
 2bc:	00028103          	lb	sp,0(t0)
 2c0:	00000013          	nop
 2c4:	00200113          	li	sp,2
 2c8:	00200393          	li	t2,2
 2cc:	01300193          	li	gp,19
 2d0:	00711463          	bne	sp,t2,2d8 <fail>
 2d4:	00301663          	bne	zero,gp,2e0 <pass>

000002d8 <fail>:
 2d8:	0ff0000f          	fence
 2dc:	00100073          	ebreak

000002e0 <pass>:
 2e0:	d01e5537          	lui	a0,0xd01e5
 2e4:	a5550513          	addi	a0,a0,-1451 # d01e4a55 <_end+0xd01e1a45>
 2e8:	00a02023          	sw	a0,0(zero) # 0 <_start>
 2ec:	0ff0000f          	fence
 2f0:	00100073          	ebreak
 2f4:	0000                	unimp
 2f6:	0000                	unimp
 2f8:	0000                	unimp
 2fa:	0000                	unimp
 2fc:	0000                	unimp
 2fe:	0000                	unimp
 300:	0000                	unimp
 302:	0000                	unimp

Disassembly of section .text:

00002000 <trap_vector>:
    2000:	0ff0000f          	fence
    2004:	00100073          	ebreak
