
output/lui.elf:     file format elf32-littleriscv


Disassembly of section .text.init:

00000000 <_start>:
   0:	00000093          	li	ra,0
   4:	00000113          	li	sp,0
   8:	00000193          	li	gp,0
   c:	00000213          	li	tp,0
  10:	00000293          	li	t0,0
  14:	00000313          	li	t1,0
  18:	00000393          	li	t2,0
  1c:	00000413          	li	s0,0
  20:	00000493          	li	s1,0
  24:	00000513          	li	a0,0
  28:	00000593          	li	a1,0
  2c:	00000613          	li	a2,0
  30:	00000693          	li	a3,0
  34:	00000713          	li	a4,0
  38:	00000793          	li	a5,0
  3c:	00000813          	li	a6,0
  40:	00000893          	li	a7,0
  44:	00000913          	li	s2,0
  48:	00000993          	li	s3,0
  4c:	00000a13          	li	s4,0
  50:	00000a93          	li	s5,0
  54:	00000b13          	li	s6,0
  58:	00000b93          	li	s7,0
  5c:	00000c13          	li	s8,0
  60:	00000c93          	li	s9,0
  64:	00000d13          	li	s10,0
  68:	00000d93          	li	s11,0
  6c:	00000e13          	li	t3,0
  70:	00000e93          	li	t4,0
  74:	00000f13          	li	t5,0
  78:	00000f93          	li	t6,0
  7c:	00002297          	auipc	t0,0x2
  80:	f8428293          	addi	t0,t0,-124 # 2000 <trap_vector>
  84:	30529073          	csrw	mtvec,t0
  88:	0040006f          	j	8c <reset_vector>

0000008c <reset_vector>:
  8c:	000000b7          	lui	ra,0x0
  90:	00000393          	li	t2,0
  94:	00200193          	li	gp,2
  98:	04709a63          	bne	ra,t2,ec <fail>

0000009c <test_3>:
  9c:	fffff0b7          	lui	ra,0xfffff
  a0:	4010d093          	srai	ra,ra,0x1
  a4:	80000393          	li	t2,-2048
  a8:	00300193          	li	gp,3
  ac:	04709063          	bne	ra,t2,ec <fail>

000000b0 <test_4>:
  b0:	7ffff0b7          	lui	ra,0x7ffff
  b4:	4140d093          	srai	ra,ra,0x14
  b8:	7ff00393          	li	t2,2047
  bc:	00400193          	li	gp,4
  c0:	02709663          	bne	ra,t2,ec <fail>

000000c4 <test_5>:
  c4:	800000b7          	lui	ra,0x80000
  c8:	4140d093          	srai	ra,ra,0x14
  cc:	80000393          	li	t2,-2048
  d0:	00500193          	li	gp,5
  d4:	00709c63          	bne	ra,t2,ec <fail>

000000d8 <test_6>:
  d8:	80000037          	lui	zero,0x80000
  dc:	00000393          	li	t2,0
  e0:	00600193          	li	gp,6
  e4:	00701463          	bne	zero,t2,ec <fail>
  e8:	00301663          	bne	zero,gp,f4 <pass>

000000ec <fail>:
  ec:	0ff0000f          	fence
  f0:	00100073          	ebreak

000000f4 <pass>:
  f4:	d01e5537          	lui	a0,0xd01e5
  f8:	a5550513          	addi	a0,a0,-1451 # d01e4a55 <_end+0xd01e1a55>
  fc:	00a02023          	sw	a0,0(zero) # 0 <_start>
 100:	0ff0000f          	fence
 104:	00100073          	ebreak
 108:	0000                	unimp
 10a:	0000                	unimp
 10c:	0000                	unimp
 10e:	0000                	unimp
 110:	0000                	unimp
 112:	0000                	unimp
 114:	0000                	unimp
 116:	0000                	unimp
 118:	0000                	unimp
 11a:	0000                	unimp
 11c:	0000                	unimp
 11e:	0000                	unimp
 120:	0000                	unimp
 122:	0000                	unimp
 124:	0000                	unimp
 126:	0000                	unimp
 128:	0000                	unimp
 12a:	0000                	unimp
 12c:	0000                	unimp
 12e:	0000                	unimp
 130:	0000                	unimp
 132:	0000                	unimp
 134:	0000                	unimp
 136:	0000                	unimp
 138:	0000                	unimp
 13a:	0000                	unimp
 13c:	0000                	unimp
 13e:	0000                	unimp
 140:	0000                	unimp
 142:	0000                	unimp

Disassembly of section .text:

00002000 <trap_vector>:
    2000:	0ff0000f          	fence
    2004:	00100073          	ebreak
