
output/lw.elf:     file format elf32-littleriscv


Disassembly of section .text.init:

00000000 <_start>:
   0:	00000093          	li	ra,0
   4:	00000113          	li	sp,0
   8:	00000193          	li	gp,0
   c:	00000213          	li	tp,0
  10:	00000293          	li	t0,0
  14:	00000313          	li	t1,0
  18:	00000393          	li	t2,0
  1c:	00000413          	li	s0,0
  20:	00000493          	li	s1,0
  24:	00000513          	li	a0,0
  28:	00000593          	li	a1,0
  2c:	00000613          	li	a2,0
  30:	00000693          	li	a3,0
  34:	00000713          	li	a4,0
  38:	00000793          	li	a5,0
  3c:	00000813          	li	a6,0
  40:	00000893          	li	a7,0
  44:	00000913          	li	s2,0
  48:	00000993          	li	s3,0
  4c:	00000a13          	li	s4,0
  50:	00000a93          	li	s5,0
  54:	00000b13          	li	s6,0
  58:	00000b93          	li	s7,0
  5c:	00000c13          	li	s8,0
  60:	00000c93          	li	s9,0
  64:	00000d13          	li	s10,0
  68:	00000d93          	li	s11,0
  6c:	00000e13          	li	t3,0
  70:	00000e93          	li	t4,0
  74:	00000f13          	li	t5,0
  78:	00000f93          	li	t6,0
  7c:	00c0006f          	j	88 <reset_vector>

00000080 <trap_vector>:
  80:	0ff0000f          	fence
  84:	00100073          	ebreak

00000088 <reset_vector>:
  88:	00002097          	auipc	ra,0x2
  8c:	f7808093          	addi	ra,ra,-136 # 2000 <begin_signature>
  90:	0000a703          	lw	a4,0(ra)
  94:	00ff03b7          	lui	t2,0xff0
  98:	0ff38393          	addi	t2,t2,255 # ff00ff <_end+0xfee0ef>
  9c:	00200193          	li	gp,2
  a0:	26771a63          	bne	a4,t2,314 <fail>

000000a4 <test_3>:
  a4:	00002097          	auipc	ra,0x2
  a8:	f5c08093          	addi	ra,ra,-164 # 2000 <begin_signature>
  ac:	0040a703          	lw	a4,4(ra)
  b0:	ff0103b7          	lui	t2,0xff010
  b4:	f0038393          	addi	t2,t2,-256 # ff00ff00 <_end+0xff00def0>
  b8:	00300193          	li	gp,3
  bc:	24771c63          	bne	a4,t2,314 <fail>

000000c0 <test_4>:
  c0:	00002097          	auipc	ra,0x2
  c4:	f4008093          	addi	ra,ra,-192 # 2000 <begin_signature>
  c8:	0080a703          	lw	a4,8(ra)
  cc:	0ff013b7          	lui	t2,0xff01
  d0:	ff038393          	addi	t2,t2,-16 # ff00ff0 <_end+0xfefefe0>
  d4:	00400193          	li	gp,4
  d8:	22771e63          	bne	a4,t2,314 <fail>

000000dc <test_5>:
  dc:	00002097          	auipc	ra,0x2
  e0:	f2408093          	addi	ra,ra,-220 # 2000 <begin_signature>
  e4:	00c0a703          	lw	a4,12(ra)
  e8:	f00ff3b7          	lui	t2,0xf00ff
  ec:	00f38393          	addi	t2,t2,15 # f00ff00f <_end+0xf00fcfff>
  f0:	00500193          	li	gp,5
  f4:	22771063          	bne	a4,t2,314 <fail>

000000f8 <test_6>:
  f8:	00002097          	auipc	ra,0x2
  fc:	f1408093          	addi	ra,ra,-236 # 200c <tdat4>
 100:	ff40a703          	lw	a4,-12(ra)
 104:	00ff03b7          	lui	t2,0xff0
 108:	0ff38393          	addi	t2,t2,255 # ff00ff <_end+0xfee0ef>
 10c:	00600193          	li	gp,6
 110:	20771263          	bne	a4,t2,314 <fail>

00000114 <test_7>:
 114:	00002097          	auipc	ra,0x2
 118:	ef808093          	addi	ra,ra,-264 # 200c <tdat4>
 11c:	ff80a703          	lw	a4,-8(ra)
 120:	ff0103b7          	lui	t2,0xff010
 124:	f0038393          	addi	t2,t2,-256 # ff00ff00 <_end+0xff00def0>
 128:	00700193          	li	gp,7
 12c:	1e771463          	bne	a4,t2,314 <fail>

00000130 <test_8>:
 130:	00002097          	auipc	ra,0x2
 134:	edc08093          	addi	ra,ra,-292 # 200c <tdat4>
 138:	ffc0a703          	lw	a4,-4(ra)
 13c:	0ff013b7          	lui	t2,0xff01
 140:	ff038393          	addi	t2,t2,-16 # ff00ff0 <_end+0xfefefe0>
 144:	00800193          	li	gp,8
 148:	1c771663          	bne	a4,t2,314 <fail>

0000014c <test_9>:
 14c:	00002097          	auipc	ra,0x2
 150:	ec008093          	addi	ra,ra,-320 # 200c <tdat4>
 154:	0000a703          	lw	a4,0(ra)
 158:	f00ff3b7          	lui	t2,0xf00ff
 15c:	00f38393          	addi	t2,t2,15 # f00ff00f <_end+0xf00fcfff>
 160:	00900193          	li	gp,9
 164:	1a771863          	bne	a4,t2,314 <fail>

00000168 <test_10>:
 168:	00002097          	auipc	ra,0x2
 16c:	e9808093          	addi	ra,ra,-360 # 2000 <begin_signature>
 170:	fe008093          	addi	ra,ra,-32
 174:	0200a283          	lw	t0,32(ra)
 178:	00ff03b7          	lui	t2,0xff0
 17c:	0ff38393          	addi	t2,t2,255 # ff00ff <_end+0xfee0ef>
 180:	00a00193          	li	gp,10
 184:	18729863          	bne	t0,t2,314 <fail>

00000188 <test_11>:
 188:	00002097          	auipc	ra,0x2
 18c:	e7808093          	addi	ra,ra,-392 # 2000 <begin_signature>
 190:	ffd08093          	addi	ra,ra,-3
 194:	0070a283          	lw	t0,7(ra)
 198:	ff0103b7          	lui	t2,0xff010
 19c:	f0038393          	addi	t2,t2,-256 # ff00ff00 <_end+0xff00def0>
 1a0:	00b00193          	li	gp,11
 1a4:	16729863          	bne	t0,t2,314 <fail>

000001a8 <test_12>:
 1a8:	00c00193          	li	gp,12
 1ac:	00000213          	li	tp,0
 1b0:	00002097          	auipc	ra,0x2
 1b4:	e5408093          	addi	ra,ra,-428 # 2004 <tdat2>
 1b8:	0040a703          	lw	a4,4(ra)
 1bc:	00070313          	mv	t1,a4
 1c0:	0ff013b7          	lui	t2,0xff01
 1c4:	ff038393          	addi	t2,t2,-16 # ff00ff0 <_end+0xfefefe0>
 1c8:	14731663          	bne	t1,t2,314 <fail>
 1cc:	00120213          	addi	tp,tp,1 # 1 <_start+0x1>
 1d0:	00200293          	li	t0,2
 1d4:	fc521ee3          	bne	tp,t0,1b0 <test_12+0x8>

000001d8 <test_13>:
 1d8:	00d00193          	li	gp,13
 1dc:	00000213          	li	tp,0
 1e0:	00002097          	auipc	ra,0x2
 1e4:	e2808093          	addi	ra,ra,-472 # 2008 <tdat3>
 1e8:	0040a703          	lw	a4,4(ra)
 1ec:	00000013          	nop
 1f0:	00070313          	mv	t1,a4
 1f4:	f00ff3b7          	lui	t2,0xf00ff
 1f8:	00f38393          	addi	t2,t2,15 # f00ff00f <_end+0xf00fcfff>
 1fc:	10731c63          	bne	t1,t2,314 <fail>
 200:	00120213          	addi	tp,tp,1 # 1 <_start+0x1>
 204:	00200293          	li	t0,2
 208:	fc521ce3          	bne	tp,t0,1e0 <test_13+0x8>

0000020c <test_14>:
 20c:	00e00193          	li	gp,14
 210:	00000213          	li	tp,0
 214:	00002097          	auipc	ra,0x2
 218:	dec08093          	addi	ra,ra,-532 # 2000 <begin_signature>
 21c:	0040a703          	lw	a4,4(ra)
 220:	00000013          	nop
 224:	00000013          	nop
 228:	00070313          	mv	t1,a4
 22c:	ff0103b7          	lui	t2,0xff010
 230:	f0038393          	addi	t2,t2,-256 # ff00ff00 <_end+0xff00def0>
 234:	0e731063          	bne	t1,t2,314 <fail>
 238:	00120213          	addi	tp,tp,1 # 1 <_start+0x1>
 23c:	00200293          	li	t0,2
 240:	fc521ae3          	bne	tp,t0,214 <test_14+0x8>

00000244 <test_15>:
 244:	00f00193          	li	gp,15
 248:	00000213          	li	tp,0
 24c:	00002097          	auipc	ra,0x2
 250:	db808093          	addi	ra,ra,-584 # 2004 <tdat2>
 254:	0040a703          	lw	a4,4(ra)
 258:	0ff013b7          	lui	t2,0xff01
 25c:	ff038393          	addi	t2,t2,-16 # ff00ff0 <_end+0xfefefe0>
 260:	0a771a63          	bne	a4,t2,314 <fail>
 264:	00120213          	addi	tp,tp,1 # 1 <_start+0x1>
 268:	00200293          	li	t0,2
 26c:	fe5210e3          	bne	tp,t0,24c <test_15+0x8>

00000270 <test_16>:
 270:	01000193          	li	gp,16
 274:	00000213          	li	tp,0
 278:	00002097          	auipc	ra,0x2
 27c:	d9008093          	addi	ra,ra,-624 # 2008 <tdat3>
 280:	00000013          	nop
 284:	0040a703          	lw	a4,4(ra)
 288:	f00ff3b7          	lui	t2,0xf00ff
 28c:	00f38393          	addi	t2,t2,15 # f00ff00f <_end+0xf00fcfff>
 290:	08771263          	bne	a4,t2,314 <fail>
 294:	00120213          	addi	tp,tp,1 # 1 <_start+0x1>
 298:	00200293          	li	t0,2
 29c:	fc521ee3          	bne	tp,t0,278 <test_16+0x8>

000002a0 <test_17>:
 2a0:	01100193          	li	gp,17
 2a4:	00000213          	li	tp,0
 2a8:	00002097          	auipc	ra,0x2
 2ac:	d5808093          	addi	ra,ra,-680 # 2000 <begin_signature>
 2b0:	00000013          	nop
 2b4:	00000013          	nop
 2b8:	0040a703          	lw	a4,4(ra)
 2bc:	ff0103b7          	lui	t2,0xff010
 2c0:	f0038393          	addi	t2,t2,-256 # ff00ff00 <_end+0xff00def0>
 2c4:	04771863          	bne	a4,t2,314 <fail>
 2c8:	00120213          	addi	tp,tp,1 # 1 <_start+0x1>
 2cc:	00200293          	li	t0,2
 2d0:	fc521ce3          	bne	tp,t0,2a8 <test_17+0x8>

000002d4 <test_18>:
 2d4:	00002297          	auipc	t0,0x2
 2d8:	d2c28293          	addi	t0,t0,-724 # 2000 <begin_signature>
 2dc:	0002a103          	lw	sp,0(t0)
 2e0:	00200113          	li	sp,2
 2e4:	00200393          	li	t2,2
 2e8:	01200193          	li	gp,18
 2ec:	02711463          	bne	sp,t2,314 <fail>

000002f0 <test_19>:
 2f0:	00002297          	auipc	t0,0x2
 2f4:	d1028293          	addi	t0,t0,-752 # 2000 <begin_signature>
 2f8:	0002a103          	lw	sp,0(t0)
 2fc:	00000013          	nop
 300:	00200113          	li	sp,2
 304:	00200393          	li	t2,2
 308:	01300193          	li	gp,19
 30c:	00711463          	bne	sp,t2,314 <fail>
 310:	00301663          	bne	zero,gp,31c <pass>

00000314 <fail>:
 314:	0ff0000f          	fence
 318:	00100073          	ebreak

0000031c <pass>:
 31c:	d01e5537          	lui	a0,0xd01e5
 320:	a5550513          	addi	a0,a0,-1451 # d01e4a55 <_end+0xd01e2a45>
 324:	00a02023          	sw	a0,0(zero) # 0 <_start>
 328:	0ff0000f          	fence
 32c:	00100073          	ebreak
 330:	0000                	unimp
 332:	0000                	unimp
 334:	0000                	unimp
 336:	0000                	unimp
 338:	0000                	unimp
 33a:	0000                	unimp
 33c:	0000                	unimp
 33e:	0000                	unimp
 340:	0000                	unimp
 342:	0000                	unimp
