
output/ori.elf:     file format elf32-littleriscv


Disassembly of section .text.init:

00000000 <_start>:
   0:	00000093          	li	ra,0
   4:	00000113          	li	sp,0
   8:	00000193          	li	gp,0
   c:	00000213          	li	tp,0
  10:	00000293          	li	t0,0
  14:	00000313          	li	t1,0
  18:	00000393          	li	t2,0
  1c:	00000413          	li	s0,0
  20:	00000493          	li	s1,0
  24:	00000513          	li	a0,0
  28:	00000593          	li	a1,0
  2c:	00000613          	li	a2,0
  30:	00000693          	li	a3,0
  34:	00000713          	li	a4,0
  38:	00000793          	li	a5,0
  3c:	00000813          	li	a6,0
  40:	00000893          	li	a7,0
  44:	00000913          	li	s2,0
  48:	00000993          	li	s3,0
  4c:	00000a13          	li	s4,0
  50:	00000a93          	li	s5,0
  54:	00000b13          	li	s6,0
  58:	00000b93          	li	s7,0
  5c:	00000c13          	li	s8,0
  60:	00000c93          	li	s9,0
  64:	00000d13          	li	s10,0
  68:	00000d93          	li	s11,0
  6c:	00000e13          	li	t3,0
  70:	00000e93          	li	t4,0
  74:	00000f13          	li	t5,0
  78:	00000f93          	li	t6,0
  7c:	0080006f          	j	84 <reset_vector>

00000080 <trap_vector>:
  80:	00100073          	ebreak

00000084 <reset_vector>:
  84:	ff0100b7          	lui	ra,0xff010
  88:	f0008093          	addi	ra,ra,-256 # ff00ff00 <_end+0xff00df00>
  8c:	f0f0e713          	ori	a4,ra,-241
  90:	f0f00393          	li	t2,-241
  94:	00200193          	li	gp,2
  98:	1c771463          	bne	a4,t2,260 <fail>

0000009c <test_3>:
  9c:	0ff010b7          	lui	ra,0xff01
  a0:	ff008093          	addi	ra,ra,-16 # ff00ff0 <_end+0xfefeff0>
  a4:	0f00e713          	ori	a4,ra,240
  a8:	0ff013b7          	lui	t2,0xff01
  ac:	ff038393          	addi	t2,t2,-16 # ff00ff0 <_end+0xfefeff0>
  b0:	00300193          	li	gp,3
  b4:	1a771663          	bne	a4,t2,260 <fail>

000000b8 <test_4>:
  b8:	00ff00b7          	lui	ra,0xff0
  bc:	0ff08093          	addi	ra,ra,255 # ff00ff <_end+0xfee0ff>
  c0:	70f0e713          	ori	a4,ra,1807
  c4:	00ff03b7          	lui	t2,0xff0
  c8:	7ff38393          	addi	t2,t2,2047 # ff07ff <_end+0xfee7ff>
  cc:	00400193          	li	gp,4
  d0:	18771863          	bne	a4,t2,260 <fail>

000000d4 <test_5>:
  d4:	f00ff0b7          	lui	ra,0xf00ff
  d8:	00f08093          	addi	ra,ra,15 # f00ff00f <_end+0xf00fd00f>
  dc:	0f00e713          	ori	a4,ra,240
  e0:	f00ff3b7          	lui	t2,0xf00ff
  e4:	0ff38393          	addi	t2,t2,255 # f00ff0ff <_end+0xf00fd0ff>
  e8:	00500193          	li	gp,5
  ec:	16771a63          	bne	a4,t2,260 <fail>

000000f0 <test_6>:
  f0:	ff0100b7          	lui	ra,0xff010
  f4:	f0008093          	addi	ra,ra,-256 # ff00ff00 <_end+0xff00df00>
  f8:	0f00e093          	ori	ra,ra,240
  fc:	ff0103b7          	lui	t2,0xff010
 100:	ff038393          	addi	t2,t2,-16 # ff00fff0 <_end+0xff00dff0>
 104:	00600193          	li	gp,6
 108:	14709c63          	bne	ra,t2,260 <fail>

0000010c <test_7>:
 10c:	00000213          	li	tp,0
 110:	0ff010b7          	lui	ra,0xff01
 114:	ff008093          	addi	ra,ra,-16 # ff00ff0 <_end+0xfefeff0>
 118:	0f00e713          	ori	a4,ra,240
 11c:	00070313          	mv	t1,a4
 120:	00120213          	addi	tp,tp,1 # 1 <_start+0x1>
 124:	00200293          	li	t0,2
 128:	fe5214e3          	bne	tp,t0,110 <test_7+0x4>
 12c:	0ff013b7          	lui	t2,0xff01
 130:	ff038393          	addi	t2,t2,-16 # ff00ff0 <_end+0xfefeff0>
 134:	00700193          	li	gp,7
 138:	12731463          	bne	t1,t2,260 <fail>

0000013c <test_8>:
 13c:	00000213          	li	tp,0
 140:	00ff00b7          	lui	ra,0xff0
 144:	0ff08093          	addi	ra,ra,255 # ff00ff <_end+0xfee0ff>
 148:	70f0e713          	ori	a4,ra,1807
 14c:	00000013          	nop
 150:	00070313          	mv	t1,a4
 154:	00120213          	addi	tp,tp,1 # 1 <_start+0x1>
 158:	00200293          	li	t0,2
 15c:	fe5212e3          	bne	tp,t0,140 <test_8+0x4>
 160:	00ff03b7          	lui	t2,0xff0
 164:	7ff38393          	addi	t2,t2,2047 # ff07ff <_end+0xfee7ff>
 168:	00800193          	li	gp,8
 16c:	0e731a63          	bne	t1,t2,260 <fail>

00000170 <test_9>:
 170:	00000213          	li	tp,0
 174:	f00ff0b7          	lui	ra,0xf00ff
 178:	00f08093          	addi	ra,ra,15 # f00ff00f <_end+0xf00fd00f>
 17c:	0f00e713          	ori	a4,ra,240
 180:	00000013          	nop
 184:	00000013          	nop
 188:	00070313          	mv	t1,a4
 18c:	00120213          	addi	tp,tp,1 # 1 <_start+0x1>
 190:	00200293          	li	t0,2
 194:	fe5210e3          	bne	tp,t0,174 <test_9+0x4>
 198:	f00ff3b7          	lui	t2,0xf00ff
 19c:	0ff38393          	addi	t2,t2,255 # f00ff0ff <_end+0xf00fd0ff>
 1a0:	00900193          	li	gp,9
 1a4:	0a731e63          	bne	t1,t2,260 <fail>

000001a8 <test_10>:
 1a8:	00000213          	li	tp,0
 1ac:	0ff010b7          	lui	ra,0xff01
 1b0:	ff008093          	addi	ra,ra,-16 # ff00ff0 <_end+0xfefeff0>
 1b4:	0f00e713          	ori	a4,ra,240
 1b8:	00120213          	addi	tp,tp,1 # 1 <_start+0x1>
 1bc:	00200293          	li	t0,2
 1c0:	fe5216e3          	bne	tp,t0,1ac <test_10+0x4>
 1c4:	0ff013b7          	lui	t2,0xff01
 1c8:	ff038393          	addi	t2,t2,-16 # ff00ff0 <_end+0xfefeff0>
 1cc:	00a00193          	li	gp,10
 1d0:	08771863          	bne	a4,t2,260 <fail>

000001d4 <test_11>:
 1d4:	00000213          	li	tp,0
 1d8:	00ff00b7          	lui	ra,0xff0
 1dc:	0ff08093          	addi	ra,ra,255 # ff00ff <_end+0xfee0ff>
 1e0:	00000013          	nop
 1e4:	f0f0e713          	ori	a4,ra,-241
 1e8:	00120213          	addi	tp,tp,1 # 1 <_start+0x1>
 1ec:	00200293          	li	t0,2
 1f0:	fe5214e3          	bne	tp,t0,1d8 <test_11+0x4>
 1f4:	fff00393          	li	t2,-1
 1f8:	00b00193          	li	gp,11
 1fc:	06771263          	bne	a4,t2,260 <fail>

00000200 <test_12>:
 200:	00000213          	li	tp,0
 204:	f00ff0b7          	lui	ra,0xf00ff
 208:	00f08093          	addi	ra,ra,15 # f00ff00f <_end+0xf00fd00f>
 20c:	00000013          	nop
 210:	00000013          	nop
 214:	0f00e713          	ori	a4,ra,240
 218:	00120213          	addi	tp,tp,1 # 1 <_start+0x1>
 21c:	00200293          	li	t0,2
 220:	fe5212e3          	bne	tp,t0,204 <test_12+0x4>
 224:	f00ff3b7          	lui	t2,0xf00ff
 228:	0ff38393          	addi	t2,t2,255 # f00ff0ff <_end+0xf00fd0ff>
 22c:	00c00193          	li	gp,12
 230:	02771863          	bne	a4,t2,260 <fail>

00000234 <test_13>:
 234:	0f006093          	ori	ra,zero,240
 238:	0f000393          	li	t2,240
 23c:	00d00193          	li	gp,13
 240:	02709063          	bne	ra,t2,260 <fail>

00000244 <test_14>:
 244:	00ff00b7          	lui	ra,0xff0
 248:	0ff08093          	addi	ra,ra,255 # ff00ff <_end+0xfee0ff>
 24c:	70f0e013          	ori	zero,ra,1807
 250:	00000393          	li	t2,0
 254:	00e00193          	li	gp,14
 258:	00701463          	bne	zero,t2,260 <fail>
 25c:	00301463          	bne	zero,gp,264 <pass>

00000260 <fail>:
 260:	00100073          	ebreak

00000264 <pass>:
 264:	d01e5537          	lui	a0,0xd01e5
 268:	a5550513          	addi	a0,a0,-1451 # d01e4a55 <_end+0xd01e2a55>
 26c:	00a02023          	sw	a0,0(zero) # 0 <_start>
 270:	00100073          	ebreak
 274:	0000                	unimp
 276:	0000                	unimp
 278:	0000                	unimp
 27a:	0000                	unimp
 27c:	0000                	unimp
 27e:	0000                	unimp
 280:	0000                	unimp
 282:	0000                	unimp
