
output/ori.elf:     file format elf32-littleriscv


Disassembly of section .text.init:

00000000 <_start>:
   0:	00000093          	li	ra,0
   4:	00000113          	li	sp,0
   8:	00000193          	li	gp,0
   c:	00000213          	li	tp,0
  10:	00000293          	li	t0,0
  14:	00000313          	li	t1,0
  18:	00000393          	li	t2,0
  1c:	00000413          	li	s0,0
  20:	00000493          	li	s1,0
  24:	00000513          	li	a0,0
  28:	00000593          	li	a1,0
  2c:	00000613          	li	a2,0
  30:	00000693          	li	a3,0
  34:	00000713          	li	a4,0
  38:	00000793          	li	a5,0
  3c:	00000813          	li	a6,0
  40:	00000893          	li	a7,0
  44:	00000913          	li	s2,0
  48:	00000993          	li	s3,0
  4c:	00000a13          	li	s4,0
  50:	00000a93          	li	s5,0
  54:	00000b13          	li	s6,0
  58:	00000b93          	li	s7,0
  5c:	00000c13          	li	s8,0
  60:	00000c93          	li	s9,0
  64:	00000d13          	li	s10,0
  68:	00000d93          	li	s11,0
  6c:	00000e13          	li	t3,0
  70:	00000e93          	li	t4,0
  74:	00000f13          	li	t5,0
  78:	00000f93          	li	t6,0
  7c:	00002297          	auipc	t0,0x2
  80:	f8428293          	addi	t0,t0,-124 # 2000 <trap_vector>
  84:	30529073          	csrw	mtvec,t0
  88:	0040006f          	j	8c <reset_vector>

0000008c <reset_vector>:
  8c:	ff0100b7          	lui	ra,0xff010
  90:	f0008093          	addi	ra,ra,-256 # ff00ff00 <_end+0xff00cf00>
  94:	f0f0e713          	ori	a4,ra,-241
  98:	f0f00393          	li	t2,-241
  9c:	00200193          	li	gp,2
  a0:	1c771463          	bne	a4,t2,268 <fail>

000000a4 <test_3>:
  a4:	0ff010b7          	lui	ra,0xff01
  a8:	ff008093          	addi	ra,ra,-16 # ff00ff0 <_end+0xfefdff0>
  ac:	0f00e713          	ori	a4,ra,240
  b0:	0ff013b7          	lui	t2,0xff01
  b4:	ff038393          	addi	t2,t2,-16 # ff00ff0 <_end+0xfefdff0>
  b8:	00300193          	li	gp,3
  bc:	1a771663          	bne	a4,t2,268 <fail>

000000c0 <test_4>:
  c0:	00ff00b7          	lui	ra,0xff0
  c4:	0ff08093          	addi	ra,ra,255 # ff00ff <_end+0xfed0ff>
  c8:	70f0e713          	ori	a4,ra,1807
  cc:	00ff03b7          	lui	t2,0xff0
  d0:	7ff38393          	addi	t2,t2,2047 # ff07ff <_end+0xfed7ff>
  d4:	00400193          	li	gp,4
  d8:	18771863          	bne	a4,t2,268 <fail>

000000dc <test_5>:
  dc:	f00ff0b7          	lui	ra,0xf00ff
  e0:	00f08093          	addi	ra,ra,15 # f00ff00f <_end+0xf00fc00f>
  e4:	0f00e713          	ori	a4,ra,240
  e8:	f00ff3b7          	lui	t2,0xf00ff
  ec:	0ff38393          	addi	t2,t2,255 # f00ff0ff <_end+0xf00fc0ff>
  f0:	00500193          	li	gp,5
  f4:	16771a63          	bne	a4,t2,268 <fail>

000000f8 <test_6>:
  f8:	ff0100b7          	lui	ra,0xff010
  fc:	f0008093          	addi	ra,ra,-256 # ff00ff00 <_end+0xff00cf00>
 100:	0f00e093          	ori	ra,ra,240
 104:	ff0103b7          	lui	t2,0xff010
 108:	ff038393          	addi	t2,t2,-16 # ff00fff0 <_end+0xff00cff0>
 10c:	00600193          	li	gp,6
 110:	14709c63          	bne	ra,t2,268 <fail>

00000114 <test_7>:
 114:	00000213          	li	tp,0
 118:	0ff010b7          	lui	ra,0xff01
 11c:	ff008093          	addi	ra,ra,-16 # ff00ff0 <_end+0xfefdff0>
 120:	0f00e713          	ori	a4,ra,240
 124:	00070313          	mv	t1,a4
 128:	00120213          	addi	tp,tp,1 # 1 <_start+0x1>
 12c:	00200293          	li	t0,2
 130:	fe5214e3          	bne	tp,t0,118 <test_7+0x4>
 134:	0ff013b7          	lui	t2,0xff01
 138:	ff038393          	addi	t2,t2,-16 # ff00ff0 <_end+0xfefdff0>
 13c:	00700193          	li	gp,7
 140:	12731463          	bne	t1,t2,268 <fail>

00000144 <test_8>:
 144:	00000213          	li	tp,0
 148:	00ff00b7          	lui	ra,0xff0
 14c:	0ff08093          	addi	ra,ra,255 # ff00ff <_end+0xfed0ff>
 150:	70f0e713          	ori	a4,ra,1807
 154:	00000013          	nop
 158:	00070313          	mv	t1,a4
 15c:	00120213          	addi	tp,tp,1 # 1 <_start+0x1>
 160:	00200293          	li	t0,2
 164:	fe5212e3          	bne	tp,t0,148 <test_8+0x4>
 168:	00ff03b7          	lui	t2,0xff0
 16c:	7ff38393          	addi	t2,t2,2047 # ff07ff <_end+0xfed7ff>
 170:	00800193          	li	gp,8
 174:	0e731a63          	bne	t1,t2,268 <fail>

00000178 <test_9>:
 178:	00000213          	li	tp,0
 17c:	f00ff0b7          	lui	ra,0xf00ff
 180:	00f08093          	addi	ra,ra,15 # f00ff00f <_end+0xf00fc00f>
 184:	0f00e713          	ori	a4,ra,240
 188:	00000013          	nop
 18c:	00000013          	nop
 190:	00070313          	mv	t1,a4
 194:	00120213          	addi	tp,tp,1 # 1 <_start+0x1>
 198:	00200293          	li	t0,2
 19c:	fe5210e3          	bne	tp,t0,17c <test_9+0x4>
 1a0:	f00ff3b7          	lui	t2,0xf00ff
 1a4:	0ff38393          	addi	t2,t2,255 # f00ff0ff <_end+0xf00fc0ff>
 1a8:	00900193          	li	gp,9
 1ac:	0a731e63          	bne	t1,t2,268 <fail>

000001b0 <test_10>:
 1b0:	00000213          	li	tp,0
 1b4:	0ff010b7          	lui	ra,0xff01
 1b8:	ff008093          	addi	ra,ra,-16 # ff00ff0 <_end+0xfefdff0>
 1bc:	0f00e713          	ori	a4,ra,240
 1c0:	00120213          	addi	tp,tp,1 # 1 <_start+0x1>
 1c4:	00200293          	li	t0,2
 1c8:	fe5216e3          	bne	tp,t0,1b4 <test_10+0x4>
 1cc:	0ff013b7          	lui	t2,0xff01
 1d0:	ff038393          	addi	t2,t2,-16 # ff00ff0 <_end+0xfefdff0>
 1d4:	00a00193          	li	gp,10
 1d8:	08771863          	bne	a4,t2,268 <fail>

000001dc <test_11>:
 1dc:	00000213          	li	tp,0
 1e0:	00ff00b7          	lui	ra,0xff0
 1e4:	0ff08093          	addi	ra,ra,255 # ff00ff <_end+0xfed0ff>
 1e8:	00000013          	nop
 1ec:	f0f0e713          	ori	a4,ra,-241
 1f0:	00120213          	addi	tp,tp,1 # 1 <_start+0x1>
 1f4:	00200293          	li	t0,2
 1f8:	fe5214e3          	bne	tp,t0,1e0 <test_11+0x4>
 1fc:	fff00393          	li	t2,-1
 200:	00b00193          	li	gp,11
 204:	06771263          	bne	a4,t2,268 <fail>

00000208 <test_12>:
 208:	00000213          	li	tp,0
 20c:	f00ff0b7          	lui	ra,0xf00ff
 210:	00f08093          	addi	ra,ra,15 # f00ff00f <_end+0xf00fc00f>
 214:	00000013          	nop
 218:	00000013          	nop
 21c:	0f00e713          	ori	a4,ra,240
 220:	00120213          	addi	tp,tp,1 # 1 <_start+0x1>
 224:	00200293          	li	t0,2
 228:	fe5212e3          	bne	tp,t0,20c <test_12+0x4>
 22c:	f00ff3b7          	lui	t2,0xf00ff
 230:	0ff38393          	addi	t2,t2,255 # f00ff0ff <_end+0xf00fc0ff>
 234:	00c00193          	li	gp,12
 238:	02771863          	bne	a4,t2,268 <fail>

0000023c <test_13>:
 23c:	0f006093          	ori	ra,zero,240
 240:	0f000393          	li	t2,240
 244:	00d00193          	li	gp,13
 248:	02709063          	bne	ra,t2,268 <fail>

0000024c <test_14>:
 24c:	00ff00b7          	lui	ra,0xff0
 250:	0ff08093          	addi	ra,ra,255 # ff00ff <_end+0xfed0ff>
 254:	70f0e013          	ori	zero,ra,1807
 258:	00000393          	li	t2,0
 25c:	00e00193          	li	gp,14
 260:	00701463          	bne	zero,t2,268 <fail>
 264:	00301663          	bne	zero,gp,270 <pass>

00000268 <fail>:
 268:	0ff0000f          	fence
 26c:	00100073          	ebreak

00000270 <pass>:
 270:	d01e5537          	lui	a0,0xd01e5
 274:	a5550513          	addi	a0,a0,-1451 # d01e4a55 <_end+0xd01e1a55>
 278:	00a02023          	sw	a0,0(zero) # 0 <_start>
 27c:	0ff0000f          	fence
 280:	00100073          	ebreak

Disassembly of section .text:

00002000 <trap_vector>:
    2000:	0ff0000f          	fence
    2004:	00100073          	ebreak
