
output/remu.elf:     file format elf32-littleriscv


Disassembly of section .text.init:

00000000 <_start>:
   0:	00000093          	li	ra,0
   4:	00000113          	li	sp,0
   8:	00000193          	li	gp,0
   c:	00000213          	li	tp,0
  10:	00000293          	li	t0,0
  14:	00000313          	li	t1,0
  18:	00000393          	li	t2,0
  1c:	00000413          	li	s0,0
  20:	00000493          	li	s1,0
  24:	00000513          	li	a0,0
  28:	00000593          	li	a1,0
  2c:	00000613          	li	a2,0
  30:	00000693          	li	a3,0
  34:	00000713          	li	a4,0
  38:	00000793          	li	a5,0
  3c:	00000813          	li	a6,0
  40:	00000893          	li	a7,0
  44:	00000913          	li	s2,0
  48:	00000993          	li	s3,0
  4c:	00000a13          	li	s4,0
  50:	00000a93          	li	s5,0
  54:	00000b13          	li	s6,0
  58:	00000b93          	li	s7,0
  5c:	00000c13          	li	s8,0
  60:	00000c93          	li	s9,0
  64:	00000d13          	li	s10,0
  68:	00000d93          	li	s11,0
  6c:	00000e13          	li	t3,0
  70:	00000e93          	li	t4,0
  74:	00000f13          	li	t5,0
  78:	00000f93          	li	t6,0
  7c:	0080006f          	j	84 <reset_vector>

00000080 <trap_vector>:
  80:	00100073          	ebreak

00000084 <reset_vector>:
  84:	01400093          	li	ra,20
  88:	00600113          	li	sp,6
  8c:	0220f733          	remu	a4,ra,sp
  90:	00200393          	li	t2,2
  94:	00200193          	li	gp,2
  98:	0c771463          	bne	a4,t2,160 <fail>

0000009c <test_3>:
  9c:	fec00093          	li	ra,-20
  a0:	00600113          	li	sp,6
  a4:	0220f733          	remu	a4,ra,sp
  a8:	00200393          	li	t2,2
  ac:	00300193          	li	gp,3
  b0:	0a771863          	bne	a4,t2,160 <fail>

000000b4 <test_4>:
  b4:	01400093          	li	ra,20
  b8:	ffa00113          	li	sp,-6
  bc:	0220f733          	remu	a4,ra,sp
  c0:	01400393          	li	t2,20
  c4:	00400193          	li	gp,4
  c8:	08771c63          	bne	a4,t2,160 <fail>

000000cc <test_5>:
  cc:	fec00093          	li	ra,-20
  d0:	ffa00113          	li	sp,-6
  d4:	0220f733          	remu	a4,ra,sp
  d8:	fec00393          	li	t2,-20
  dc:	00500193          	li	gp,5
  e0:	08771063          	bne	a4,t2,160 <fail>

000000e4 <test_6>:
  e4:	800000b7          	lui	ra,0x80000
  e8:	00100113          	li	sp,1
  ec:	0220f733          	remu	a4,ra,sp
  f0:	00000393          	li	t2,0
  f4:	00600193          	li	gp,6
  f8:	06771463          	bne	a4,t2,160 <fail>

000000fc <test_7>:
  fc:	800000b7          	lui	ra,0x80000
 100:	fff00113          	li	sp,-1
 104:	0220f733          	remu	a4,ra,sp
 108:	800003b7          	lui	t2,0x80000
 10c:	00700193          	li	gp,7
 110:	04771863          	bne	a4,t2,160 <fail>

00000114 <test_8>:
 114:	800000b7          	lui	ra,0x80000
 118:	00000113          	li	sp,0
 11c:	0220f733          	remu	a4,ra,sp
 120:	800003b7          	lui	t2,0x80000
 124:	00800193          	li	gp,8
 128:	02771c63          	bne	a4,t2,160 <fail>

0000012c <test_9>:
 12c:	00100093          	li	ra,1
 130:	00000113          	li	sp,0
 134:	0220f733          	remu	a4,ra,sp
 138:	00100393          	li	t2,1
 13c:	00900193          	li	gp,9
 140:	02771063          	bne	a4,t2,160 <fail>

00000144 <test_10>:
 144:	00000093          	li	ra,0
 148:	00000113          	li	sp,0
 14c:	0220f733          	remu	a4,ra,sp
 150:	00000393          	li	t2,0
 154:	00a00193          	li	gp,10
 158:	00771463          	bne	a4,t2,160 <fail>
 15c:	00301463          	bne	zero,gp,164 <pass>

00000160 <fail>:
 160:	00100073          	ebreak

00000164 <pass>:
 164:	d01e5537          	lui	a0,0xd01e5
 168:	a5550513          	addi	a0,a0,-1451 # d01e4a55 <_end+0xd01e2a55>
 16c:	00a02023          	sw	a0,0(zero) # 0 <_start>
 170:	00100073          	ebreak
 174:	0000                	unimp
 176:	0000                	unimp
 178:	0000                	unimp
 17a:	0000                	unimp
 17c:	0000                	unimp
 17e:	0000                	unimp
 180:	0000                	unimp
 182:	0000                	unimp
