
output/slti.elf:     file format elf32-littleriscv


Disassembly of section .text.init:

00000000 <_start>:
   0:	00000093          	li	ra,0
   4:	00000113          	li	sp,0
   8:	00000193          	li	gp,0
   c:	00000213          	li	tp,0
  10:	00000293          	li	t0,0
  14:	00000313          	li	t1,0
  18:	00000393          	li	t2,0
  1c:	00000413          	li	s0,0
  20:	00000493          	li	s1,0
  24:	00000513          	li	a0,0
  28:	00000593          	li	a1,0
  2c:	00000613          	li	a2,0
  30:	00000693          	li	a3,0
  34:	00000713          	li	a4,0
  38:	00000793          	li	a5,0
  3c:	00000813          	li	a6,0
  40:	00000893          	li	a7,0
  44:	00000913          	li	s2,0
  48:	00000993          	li	s3,0
  4c:	00000a13          	li	s4,0
  50:	00000a93          	li	s5,0
  54:	00000b13          	li	s6,0
  58:	00000b93          	li	s7,0
  5c:	00000c13          	li	s8,0
  60:	00000c93          	li	s9,0
  64:	00000d13          	li	s10,0
  68:	00000d93          	li	s11,0
  6c:	00000e13          	li	t3,0
  70:	00000e93          	li	t4,0
  74:	00000f13          	li	t5,0
  78:	00000f93          	li	t6,0
  7c:	00002297          	auipc	t0,0x2
  80:	f8428293          	addi	t0,t0,-124 # 2000 <trap_vector>
  84:	30529073          	csrw	mtvec,t0
  88:	0040006f          	j	8c <reset_vector>

0000008c <reset_vector>:
  8c:	00000093          	li	ra,0
  90:	0000a713          	slti	a4,ra,0
  94:	00000393          	li	t2,0
  98:	00200193          	li	gp,2
  9c:	26771263          	bne	a4,t2,300 <fail>

000000a0 <test_3>:
  a0:	00100093          	li	ra,1
  a4:	0010a713          	slti	a4,ra,1
  a8:	00000393          	li	t2,0
  ac:	00300193          	li	gp,3
  b0:	24771863          	bne	a4,t2,300 <fail>

000000b4 <test_4>:
  b4:	00300093          	li	ra,3
  b8:	0070a713          	slti	a4,ra,7
  bc:	00100393          	li	t2,1
  c0:	00400193          	li	gp,4
  c4:	22771e63          	bne	a4,t2,300 <fail>

000000c8 <test_5>:
  c8:	00700093          	li	ra,7
  cc:	0030a713          	slti	a4,ra,3
  d0:	00000393          	li	t2,0
  d4:	00500193          	li	gp,5
  d8:	22771463          	bne	a4,t2,300 <fail>

000000dc <test_6>:
  dc:	00000093          	li	ra,0
  e0:	8000a713          	slti	a4,ra,-2048
  e4:	00000393          	li	t2,0
  e8:	00600193          	li	gp,6
  ec:	20771a63          	bne	a4,t2,300 <fail>

000000f0 <test_7>:
  f0:	800000b7          	lui	ra,0x80000
  f4:	0000a713          	slti	a4,ra,0
  f8:	00100393          	li	t2,1
  fc:	00700193          	li	gp,7
 100:	20771063          	bne	a4,t2,300 <fail>

00000104 <test_8>:
 104:	800000b7          	lui	ra,0x80000
 108:	8000a713          	slti	a4,ra,-2048
 10c:	00100393          	li	t2,1
 110:	00800193          	li	gp,8
 114:	1e771663          	bne	a4,t2,300 <fail>

00000118 <test_9>:
 118:	00000093          	li	ra,0
 11c:	7ff0a713          	slti	a4,ra,2047
 120:	00100393          	li	t2,1
 124:	00900193          	li	gp,9
 128:	1c771c63          	bne	a4,t2,300 <fail>

0000012c <test_10>:
 12c:	800000b7          	lui	ra,0x80000
 130:	fff08093          	addi	ra,ra,-1 # 7fffffff <_end+0x7fffcfff>
 134:	0000a713          	slti	a4,ra,0
 138:	00000393          	li	t2,0
 13c:	00a00193          	li	gp,10
 140:	1c771063          	bne	a4,t2,300 <fail>

00000144 <test_11>:
 144:	800000b7          	lui	ra,0x80000
 148:	fff08093          	addi	ra,ra,-1 # 7fffffff <_end+0x7fffcfff>
 14c:	7ff0a713          	slti	a4,ra,2047
 150:	00000393          	li	t2,0
 154:	00b00193          	li	gp,11
 158:	1a771463          	bne	a4,t2,300 <fail>

0000015c <test_12>:
 15c:	800000b7          	lui	ra,0x80000
 160:	7ff0a713          	slti	a4,ra,2047
 164:	00100393          	li	t2,1
 168:	00c00193          	li	gp,12
 16c:	18771a63          	bne	a4,t2,300 <fail>

00000170 <test_13>:
 170:	800000b7          	lui	ra,0x80000
 174:	fff08093          	addi	ra,ra,-1 # 7fffffff <_end+0x7fffcfff>
 178:	8000a713          	slti	a4,ra,-2048
 17c:	00000393          	li	t2,0
 180:	00d00193          	li	gp,13
 184:	16771e63          	bne	a4,t2,300 <fail>

00000188 <test_14>:
 188:	00000093          	li	ra,0
 18c:	fff0a713          	slti	a4,ra,-1
 190:	00000393          	li	t2,0
 194:	00e00193          	li	gp,14
 198:	16771463          	bne	a4,t2,300 <fail>

0000019c <test_15>:
 19c:	fff00093          	li	ra,-1
 1a0:	0010a713          	slti	a4,ra,1
 1a4:	00100393          	li	t2,1
 1a8:	00f00193          	li	gp,15
 1ac:	14771a63          	bne	a4,t2,300 <fail>

000001b0 <test_16>:
 1b0:	fff00093          	li	ra,-1
 1b4:	fff0a713          	slti	a4,ra,-1
 1b8:	00000393          	li	t2,0
 1bc:	01000193          	li	gp,16
 1c0:	14771063          	bne	a4,t2,300 <fail>

000001c4 <test_17>:
 1c4:	00b00093          	li	ra,11
 1c8:	00d0a093          	slti	ra,ra,13
 1cc:	00100393          	li	t2,1
 1d0:	01100193          	li	gp,17
 1d4:	12709663          	bne	ra,t2,300 <fail>

000001d8 <test_18>:
 1d8:	00000213          	li	tp,0
 1dc:	00f00093          	li	ra,15
 1e0:	00a0a713          	slti	a4,ra,10
 1e4:	00070313          	mv	t1,a4
 1e8:	00120213          	addi	tp,tp,1 # 1 <_start+0x1>
 1ec:	00200293          	li	t0,2
 1f0:	fe5216e3          	bne	tp,t0,1dc <test_18+0x4>
 1f4:	00000393          	li	t2,0
 1f8:	01200193          	li	gp,18
 1fc:	10731263          	bne	t1,t2,300 <fail>

00000200 <test_19>:
 200:	00000213          	li	tp,0
 204:	00a00093          	li	ra,10
 208:	0100a713          	slti	a4,ra,16
 20c:	00000013          	nop
 210:	00070313          	mv	t1,a4
 214:	00120213          	addi	tp,tp,1 # 1 <_start+0x1>
 218:	00200293          	li	t0,2
 21c:	fe5214e3          	bne	tp,t0,204 <test_19+0x4>
 220:	00100393          	li	t2,1
 224:	01300193          	li	gp,19
 228:	0c731c63          	bne	t1,t2,300 <fail>

0000022c <test_20>:
 22c:	00000213          	li	tp,0
 230:	01000093          	li	ra,16
 234:	0090a713          	slti	a4,ra,9
 238:	00000013          	nop
 23c:	00000013          	nop
 240:	00070313          	mv	t1,a4
 244:	00120213          	addi	tp,tp,1 # 1 <_start+0x1>
 248:	00200293          	li	t0,2
 24c:	fe5212e3          	bne	tp,t0,230 <test_20+0x4>
 250:	00000393          	li	t2,0
 254:	01400193          	li	gp,20
 258:	0a731463          	bne	t1,t2,300 <fail>

0000025c <test_21>:
 25c:	00000213          	li	tp,0
 260:	00b00093          	li	ra,11
 264:	00f0a713          	slti	a4,ra,15
 268:	00120213          	addi	tp,tp,1 # 1 <_start+0x1>
 26c:	00200293          	li	t0,2
 270:	fe5218e3          	bne	tp,t0,260 <test_21+0x4>
 274:	00100393          	li	t2,1
 278:	01500193          	li	gp,21
 27c:	08771263          	bne	a4,t2,300 <fail>

00000280 <test_22>:
 280:	00000213          	li	tp,0
 284:	01100093          	li	ra,17
 288:	00000013          	nop
 28c:	0080a713          	slti	a4,ra,8
 290:	00120213          	addi	tp,tp,1 # 1 <_start+0x1>
 294:	00200293          	li	t0,2
 298:	fe5216e3          	bne	tp,t0,284 <test_22+0x4>
 29c:	00000393          	li	t2,0
 2a0:	01600193          	li	gp,22
 2a4:	04771e63          	bne	a4,t2,300 <fail>

000002a8 <test_23>:
 2a8:	00000213          	li	tp,0
 2ac:	00c00093          	li	ra,12
 2b0:	00000013          	nop
 2b4:	00000013          	nop
 2b8:	00e0a713          	slti	a4,ra,14
 2bc:	00120213          	addi	tp,tp,1 # 1 <_start+0x1>
 2c0:	00200293          	li	t0,2
 2c4:	fe5214e3          	bne	tp,t0,2ac <test_23+0x4>
 2c8:	00100393          	li	t2,1
 2cc:	01700193          	li	gp,23
 2d0:	02771863          	bne	a4,t2,300 <fail>

000002d4 <test_24>:
 2d4:	fff02093          	slti	ra,zero,-1
 2d8:	00000393          	li	t2,0
 2dc:	01800193          	li	gp,24
 2e0:	02709063          	bne	ra,t2,300 <fail>

000002e4 <test_25>:
 2e4:	00ff00b7          	lui	ra,0xff0
 2e8:	0ff08093          	addi	ra,ra,255 # ff00ff <_end+0xfed0ff>
 2ec:	fff0a013          	slti	zero,ra,-1
 2f0:	00000393          	li	t2,0
 2f4:	01900193          	li	gp,25
 2f8:	00701463          	bne	zero,t2,300 <fail>
 2fc:	00301663          	bne	zero,gp,308 <pass>

00000300 <fail>:
 300:	0ff0000f          	fence
 304:	00100073          	ebreak

00000308 <pass>:
 308:	d01e5537          	lui	a0,0xd01e5
 30c:	a5550513          	addi	a0,a0,-1451 # d01e4a55 <_end+0xd01e1a55>
 310:	00a02023          	sw	a0,0(zero) # 0 <_start>
 314:	0ff0000f          	fence
 318:	00100073          	ebreak
 31c:	0000                	unimp
 31e:	0000                	unimp
 320:	0000                	unimp
 322:	0000                	unimp
 324:	0000                	unimp
 326:	0000                	unimp
 328:	0000                	unimp
 32a:	0000                	unimp
 32c:	0000                	unimp
 32e:	0000                	unimp
 330:	0000                	unimp
 332:	0000                	unimp
 334:	0000                	unimp
 336:	0000                	unimp
 338:	0000                	unimp
 33a:	0000                	unimp
 33c:	0000                	unimp
 33e:	0000                	unimp
 340:	0000                	unimp
 342:	0000                	unimp

Disassembly of section .text:

00002000 <trap_vector>:
    2000:	0ff0000f          	fence
    2004:	00100073          	ebreak
