
output/sltu.elf:     file format elf32-littleriscv


Disassembly of section .text.init:

00000000 <_start>:
   0:	00000093          	li	ra,0
   4:	00000113          	li	sp,0
   8:	00000193          	li	gp,0
   c:	00000213          	li	tp,0
  10:	00000293          	li	t0,0
  14:	00000313          	li	t1,0
  18:	00000393          	li	t2,0
  1c:	00000413          	li	s0,0
  20:	00000493          	li	s1,0
  24:	00000513          	li	a0,0
  28:	00000593          	li	a1,0
  2c:	00000613          	li	a2,0
  30:	00000693          	li	a3,0
  34:	00000713          	li	a4,0
  38:	00000793          	li	a5,0
  3c:	00000813          	li	a6,0
  40:	00000893          	li	a7,0
  44:	00000913          	li	s2,0
  48:	00000993          	li	s3,0
  4c:	00000a13          	li	s4,0
  50:	00000a93          	li	s5,0
  54:	00000b13          	li	s6,0
  58:	00000b93          	li	s7,0
  5c:	00000c13          	li	s8,0
  60:	00000c93          	li	s9,0
  64:	00000d13          	li	s10,0
  68:	00000d93          	li	s11,0
  6c:	00000e13          	li	t3,0
  70:	00000e93          	li	t4,0
  74:	00000f13          	li	t5,0
  78:	00000f93          	li	t6,0
  7c:	0080006f          	j	84 <reset_vector>

00000080 <trap_vector>:
  80:	00100073          	ebreak

00000084 <reset_vector>:
  84:	00000093          	li	ra,0
  88:	00000113          	li	sp,0
  8c:	0020b733          	sltu	a4,ra,sp
  90:	00000393          	li	t2,0
  94:	00200193          	li	gp,2
  98:	4a771a63          	bne	a4,t2,54c <fail>

0000009c <test_3>:
  9c:	00100093          	li	ra,1
  a0:	00100113          	li	sp,1
  a4:	0020b733          	sltu	a4,ra,sp
  a8:	00000393          	li	t2,0
  ac:	00300193          	li	gp,3
  b0:	48771e63          	bne	a4,t2,54c <fail>

000000b4 <test_4>:
  b4:	00300093          	li	ra,3
  b8:	00700113          	li	sp,7
  bc:	0020b733          	sltu	a4,ra,sp
  c0:	00100393          	li	t2,1
  c4:	00400193          	li	gp,4
  c8:	48771263          	bne	a4,t2,54c <fail>

000000cc <test_5>:
  cc:	00700093          	li	ra,7
  d0:	00300113          	li	sp,3
  d4:	0020b733          	sltu	a4,ra,sp
  d8:	00000393          	li	t2,0
  dc:	00500193          	li	gp,5
  e0:	46771663          	bne	a4,t2,54c <fail>

000000e4 <test_6>:
  e4:	00000093          	li	ra,0
  e8:	ffff8137          	lui	sp,0xffff8
  ec:	0020b733          	sltu	a4,ra,sp
  f0:	00100393          	li	t2,1
  f4:	00600193          	li	gp,6
  f8:	44771a63          	bne	a4,t2,54c <fail>

000000fc <test_7>:
  fc:	800000b7          	lui	ra,0x80000
 100:	00000113          	li	sp,0
 104:	0020b733          	sltu	a4,ra,sp
 108:	00000393          	li	t2,0
 10c:	00700193          	li	gp,7
 110:	42771e63          	bne	a4,t2,54c <fail>

00000114 <test_8>:
 114:	800000b7          	lui	ra,0x80000
 118:	ffff8137          	lui	sp,0xffff8
 11c:	0020b733          	sltu	a4,ra,sp
 120:	00100393          	li	t2,1
 124:	00800193          	li	gp,8
 128:	42771263          	bne	a4,t2,54c <fail>

0000012c <test_9>:
 12c:	00000093          	li	ra,0
 130:	00008137          	lui	sp,0x8
 134:	fff10113          	addi	sp,sp,-1 # 7fff <_end+0x5fff>
 138:	0020b733          	sltu	a4,ra,sp
 13c:	00100393          	li	t2,1
 140:	00900193          	li	gp,9
 144:	40771463          	bne	a4,t2,54c <fail>

00000148 <test_10>:
 148:	800000b7          	lui	ra,0x80000
 14c:	fff08093          	addi	ra,ra,-1 # 7fffffff <_end+0x7fffdfff>
 150:	00000113          	li	sp,0
 154:	0020b733          	sltu	a4,ra,sp
 158:	00000393          	li	t2,0
 15c:	00a00193          	li	gp,10
 160:	3e771663          	bne	a4,t2,54c <fail>

00000164 <test_11>:
 164:	800000b7          	lui	ra,0x80000
 168:	fff08093          	addi	ra,ra,-1 # 7fffffff <_end+0x7fffdfff>
 16c:	00008137          	lui	sp,0x8
 170:	fff10113          	addi	sp,sp,-1 # 7fff <_end+0x5fff>
 174:	0020b733          	sltu	a4,ra,sp
 178:	00000393          	li	t2,0
 17c:	00b00193          	li	gp,11
 180:	3c771663          	bne	a4,t2,54c <fail>

00000184 <test_12>:
 184:	800000b7          	lui	ra,0x80000
 188:	00008137          	lui	sp,0x8
 18c:	fff10113          	addi	sp,sp,-1 # 7fff <_end+0x5fff>
 190:	0020b733          	sltu	a4,ra,sp
 194:	00000393          	li	t2,0
 198:	00c00193          	li	gp,12
 19c:	3a771863          	bne	a4,t2,54c <fail>

000001a0 <test_13>:
 1a0:	800000b7          	lui	ra,0x80000
 1a4:	fff08093          	addi	ra,ra,-1 # 7fffffff <_end+0x7fffdfff>
 1a8:	ffff8137          	lui	sp,0xffff8
 1ac:	0020b733          	sltu	a4,ra,sp
 1b0:	00100393          	li	t2,1
 1b4:	00d00193          	li	gp,13
 1b8:	38771a63          	bne	a4,t2,54c <fail>

000001bc <test_14>:
 1bc:	00000093          	li	ra,0
 1c0:	fff00113          	li	sp,-1
 1c4:	0020b733          	sltu	a4,ra,sp
 1c8:	00100393          	li	t2,1
 1cc:	00e00193          	li	gp,14
 1d0:	36771e63          	bne	a4,t2,54c <fail>

000001d4 <test_15>:
 1d4:	fff00093          	li	ra,-1
 1d8:	00100113          	li	sp,1
 1dc:	0020b733          	sltu	a4,ra,sp
 1e0:	00000393          	li	t2,0
 1e4:	00f00193          	li	gp,15
 1e8:	36771263          	bne	a4,t2,54c <fail>

000001ec <test_16>:
 1ec:	fff00093          	li	ra,-1
 1f0:	fff00113          	li	sp,-1
 1f4:	0020b733          	sltu	a4,ra,sp
 1f8:	00000393          	li	t2,0
 1fc:	01000193          	li	gp,16
 200:	34771663          	bne	a4,t2,54c <fail>

00000204 <test_17>:
 204:	00e00093          	li	ra,14
 208:	00d00113          	li	sp,13
 20c:	0020b0b3          	sltu	ra,ra,sp
 210:	00000393          	li	t2,0
 214:	01100193          	li	gp,17
 218:	32709a63          	bne	ra,t2,54c <fail>

0000021c <test_18>:
 21c:	00b00093          	li	ra,11
 220:	00d00113          	li	sp,13
 224:	0020b133          	sltu	sp,ra,sp
 228:	00100393          	li	t2,1
 22c:	01200193          	li	gp,18
 230:	30711e63          	bne	sp,t2,54c <fail>

00000234 <test_19>:
 234:	00d00093          	li	ra,13
 238:	0010b0b3          	sltu	ra,ra,ra
 23c:	00000393          	li	t2,0
 240:	01300193          	li	gp,19
 244:	30709463          	bne	ra,t2,54c <fail>

00000248 <test_20>:
 248:	00000213          	li	tp,0
 24c:	00b00093          	li	ra,11
 250:	00d00113          	li	sp,13
 254:	0020b733          	sltu	a4,ra,sp
 258:	00070313          	mv	t1,a4
 25c:	00120213          	addi	tp,tp,1 # 1 <_start+0x1>
 260:	00200293          	li	t0,2
 264:	fe5214e3          	bne	tp,t0,24c <test_20+0x4>
 268:	00100393          	li	t2,1
 26c:	01400193          	li	gp,20
 270:	2c731e63          	bne	t1,t2,54c <fail>

00000274 <test_21>:
 274:	00000213          	li	tp,0
 278:	00e00093          	li	ra,14
 27c:	00d00113          	li	sp,13
 280:	0020b733          	sltu	a4,ra,sp
 284:	00000013          	nop
 288:	00070313          	mv	t1,a4
 28c:	00120213          	addi	tp,tp,1 # 1 <_start+0x1>
 290:	00200293          	li	t0,2
 294:	fe5212e3          	bne	tp,t0,278 <test_21+0x4>
 298:	00000393          	li	t2,0
 29c:	01500193          	li	gp,21
 2a0:	2a731663          	bne	t1,t2,54c <fail>

000002a4 <test_22>:
 2a4:	00000213          	li	tp,0
 2a8:	00c00093          	li	ra,12
 2ac:	00d00113          	li	sp,13
 2b0:	0020b733          	sltu	a4,ra,sp
 2b4:	00000013          	nop
 2b8:	00000013          	nop
 2bc:	00070313          	mv	t1,a4
 2c0:	00120213          	addi	tp,tp,1 # 1 <_start+0x1>
 2c4:	00200293          	li	t0,2
 2c8:	fe5210e3          	bne	tp,t0,2a8 <test_22+0x4>
 2cc:	00100393          	li	t2,1
 2d0:	01600193          	li	gp,22
 2d4:	26731c63          	bne	t1,t2,54c <fail>

000002d8 <test_23>:
 2d8:	00000213          	li	tp,0
 2dc:	00e00093          	li	ra,14
 2e0:	00d00113          	li	sp,13
 2e4:	0020b733          	sltu	a4,ra,sp
 2e8:	00120213          	addi	tp,tp,1 # 1 <_start+0x1>
 2ec:	00200293          	li	t0,2
 2f0:	fe5216e3          	bne	tp,t0,2dc <test_23+0x4>
 2f4:	00000393          	li	t2,0
 2f8:	01700193          	li	gp,23
 2fc:	24771863          	bne	a4,t2,54c <fail>

00000300 <test_24>:
 300:	00000213          	li	tp,0
 304:	00b00093          	li	ra,11
 308:	00d00113          	li	sp,13
 30c:	00000013          	nop
 310:	0020b733          	sltu	a4,ra,sp
 314:	00120213          	addi	tp,tp,1 # 1 <_start+0x1>
 318:	00200293          	li	t0,2
 31c:	fe5214e3          	bne	tp,t0,304 <test_24+0x4>
 320:	00100393          	li	t2,1
 324:	01800193          	li	gp,24
 328:	22771263          	bne	a4,t2,54c <fail>

0000032c <test_25>:
 32c:	00000213          	li	tp,0
 330:	00f00093          	li	ra,15
 334:	00d00113          	li	sp,13
 338:	00000013          	nop
 33c:	00000013          	nop
 340:	0020b733          	sltu	a4,ra,sp
 344:	00120213          	addi	tp,tp,1 # 1 <_start+0x1>
 348:	00200293          	li	t0,2
 34c:	fe5212e3          	bne	tp,t0,330 <test_25+0x4>
 350:	00000393          	li	t2,0
 354:	01900193          	li	gp,25
 358:	1e771a63          	bne	a4,t2,54c <fail>

0000035c <test_26>:
 35c:	00000213          	li	tp,0
 360:	00a00093          	li	ra,10
 364:	00000013          	nop
 368:	00d00113          	li	sp,13
 36c:	0020b733          	sltu	a4,ra,sp
 370:	00120213          	addi	tp,tp,1 # 1 <_start+0x1>
 374:	00200293          	li	t0,2
 378:	fe5214e3          	bne	tp,t0,360 <test_26+0x4>
 37c:	00100393          	li	t2,1
 380:	01a00193          	li	gp,26
 384:	1c771463          	bne	a4,t2,54c <fail>

00000388 <test_27>:
 388:	00000213          	li	tp,0
 38c:	01000093          	li	ra,16
 390:	00000013          	nop
 394:	00d00113          	li	sp,13
 398:	00000013          	nop
 39c:	0020b733          	sltu	a4,ra,sp
 3a0:	00120213          	addi	tp,tp,1 # 1 <_start+0x1>
 3a4:	00200293          	li	t0,2
 3a8:	fe5212e3          	bne	tp,t0,38c <test_27+0x4>
 3ac:	00000393          	li	t2,0
 3b0:	01b00193          	li	gp,27
 3b4:	18771c63          	bne	a4,t2,54c <fail>

000003b8 <test_28>:
 3b8:	00000213          	li	tp,0
 3bc:	00900093          	li	ra,9
 3c0:	00000013          	nop
 3c4:	00000013          	nop
 3c8:	00d00113          	li	sp,13
 3cc:	0020b733          	sltu	a4,ra,sp
 3d0:	00120213          	addi	tp,tp,1 # 1 <_start+0x1>
 3d4:	00200293          	li	t0,2
 3d8:	fe5212e3          	bne	tp,t0,3bc <test_28+0x4>
 3dc:	00100393          	li	t2,1
 3e0:	01c00193          	li	gp,28
 3e4:	16771463          	bne	a4,t2,54c <fail>

000003e8 <test_29>:
 3e8:	00000213          	li	tp,0
 3ec:	00d00113          	li	sp,13
 3f0:	01100093          	li	ra,17
 3f4:	0020b733          	sltu	a4,ra,sp
 3f8:	00120213          	addi	tp,tp,1 # 1 <_start+0x1>
 3fc:	00200293          	li	t0,2
 400:	fe5216e3          	bne	tp,t0,3ec <test_29+0x4>
 404:	00000393          	li	t2,0
 408:	01d00193          	li	gp,29
 40c:	14771063          	bne	a4,t2,54c <fail>

00000410 <test_30>:
 410:	00000213          	li	tp,0
 414:	00d00113          	li	sp,13
 418:	00800093          	li	ra,8
 41c:	00000013          	nop
 420:	0020b733          	sltu	a4,ra,sp
 424:	00120213          	addi	tp,tp,1 # 1 <_start+0x1>
 428:	00200293          	li	t0,2
 42c:	fe5214e3          	bne	tp,t0,414 <test_30+0x4>
 430:	00100393          	li	t2,1
 434:	01e00193          	li	gp,30
 438:	10771a63          	bne	a4,t2,54c <fail>

0000043c <test_31>:
 43c:	00000213          	li	tp,0
 440:	00d00113          	li	sp,13
 444:	01200093          	li	ra,18
 448:	00000013          	nop
 44c:	00000013          	nop
 450:	0020b733          	sltu	a4,ra,sp
 454:	00120213          	addi	tp,tp,1 # 1 <_start+0x1>
 458:	00200293          	li	t0,2
 45c:	fe5212e3          	bne	tp,t0,440 <test_31+0x4>
 460:	00000393          	li	t2,0
 464:	01f00193          	li	gp,31
 468:	0e771263          	bne	a4,t2,54c <fail>

0000046c <test_32>:
 46c:	00000213          	li	tp,0
 470:	00d00113          	li	sp,13
 474:	00000013          	nop
 478:	00700093          	li	ra,7
 47c:	0020b733          	sltu	a4,ra,sp
 480:	00120213          	addi	tp,tp,1 # 1 <_start+0x1>
 484:	00200293          	li	t0,2
 488:	fe5214e3          	bne	tp,t0,470 <test_32+0x4>
 48c:	00100393          	li	t2,1
 490:	02000193          	li	gp,32
 494:	0a771c63          	bne	a4,t2,54c <fail>

00000498 <test_33>:
 498:	00000213          	li	tp,0
 49c:	00d00113          	li	sp,13
 4a0:	00000013          	nop
 4a4:	01300093          	li	ra,19
 4a8:	00000013          	nop
 4ac:	0020b733          	sltu	a4,ra,sp
 4b0:	00120213          	addi	tp,tp,1 # 1 <_start+0x1>
 4b4:	00200293          	li	t0,2
 4b8:	fe5212e3          	bne	tp,t0,49c <test_33+0x4>
 4bc:	00000393          	li	t2,0
 4c0:	02100193          	li	gp,33
 4c4:	08771463          	bne	a4,t2,54c <fail>

000004c8 <test_34>:
 4c8:	00000213          	li	tp,0
 4cc:	00d00113          	li	sp,13
 4d0:	00000013          	nop
 4d4:	00000013          	nop
 4d8:	00600093          	li	ra,6
 4dc:	0020b733          	sltu	a4,ra,sp
 4e0:	00120213          	addi	tp,tp,1 # 1 <_start+0x1>
 4e4:	00200293          	li	t0,2
 4e8:	fe5212e3          	bne	tp,t0,4cc <test_34+0x4>
 4ec:	00100393          	li	t2,1
 4f0:	02200193          	li	gp,34
 4f4:	04771c63          	bne	a4,t2,54c <fail>

000004f8 <test_35>:
 4f8:	fff00093          	li	ra,-1
 4fc:	00103133          	snez	sp,ra
 500:	00100393          	li	t2,1
 504:	02300193          	li	gp,35
 508:	04711263          	bne	sp,t2,54c <fail>

0000050c <test_36>:
 50c:	fff00093          	li	ra,-1
 510:	0000b133          	sltu	sp,ra,zero
 514:	00000393          	li	t2,0
 518:	02400193          	li	gp,36
 51c:	02711863          	bne	sp,t2,54c <fail>

00000520 <test_37>:
 520:	000030b3          	snez	ra,zero
 524:	00000393          	li	t2,0
 528:	02500193          	li	gp,37
 52c:	02709063          	bne	ra,t2,54c <fail>

00000530 <test_38>:
 530:	01000093          	li	ra,16
 534:	01e00113          	li	sp,30
 538:	0020b033          	sltu	zero,ra,sp
 53c:	00000393          	li	t2,0
 540:	02600193          	li	gp,38
 544:	00701463          	bne	zero,t2,54c <fail>
 548:	00301463          	bne	zero,gp,550 <pass>

0000054c <fail>:
 54c:	00100073          	ebreak

00000550 <pass>:
 550:	d01e5537          	lui	a0,0xd01e5
 554:	a5550513          	addi	a0,a0,-1451 # d01e4a55 <_end+0xd01e2a55>
 558:	00a02023          	sw	a0,0(zero) # 0 <_start>
 55c:	00100073          	ebreak
 560:	0000                	unimp
 562:	0000                	unimp
 564:	0000                	unimp
 566:	0000                	unimp
 568:	0000                	unimp
 56a:	0000                	unimp
 56c:	0000                	unimp
 56e:	0000                	unimp
 570:	0000                	unimp
 572:	0000                	unimp
 574:	0000                	unimp
 576:	0000                	unimp
 578:	0000                	unimp
 57a:	0000                	unimp
 57c:	0000                	unimp
 57e:	0000                	unimp
 580:	0000                	unimp
 582:	0000                	unimp
