
output/srai.elf:     file format elf32-littleriscv


Disassembly of section .text.init:

00000000 <_start>:
   0:	00000093          	li	ra,0
   4:	00000113          	li	sp,0
   8:	00000193          	li	gp,0
   c:	00000213          	li	tp,0
  10:	00000293          	li	t0,0
  14:	00000313          	li	t1,0
  18:	00000393          	li	t2,0
  1c:	00000413          	li	s0,0
  20:	00000493          	li	s1,0
  24:	00000513          	li	a0,0
  28:	00000593          	li	a1,0
  2c:	00000613          	li	a2,0
  30:	00000693          	li	a3,0
  34:	00000713          	li	a4,0
  38:	00000793          	li	a5,0
  3c:	00000813          	li	a6,0
  40:	00000893          	li	a7,0
  44:	00000913          	li	s2,0
  48:	00000993          	li	s3,0
  4c:	00000a13          	li	s4,0
  50:	00000a93          	li	s5,0
  54:	00000b13          	li	s6,0
  58:	00000b93          	li	s7,0
  5c:	00000c13          	li	s8,0
  60:	00000c93          	li	s9,0
  64:	00000d13          	li	s10,0
  68:	00000d93          	li	s11,0
  6c:	00000e13          	li	t3,0
  70:	00000e93          	li	t4,0
  74:	00000f13          	li	t5,0
  78:	00000f93          	li	t6,0
  7c:	00002297          	auipc	t0,0x2
  80:	f8428293          	addi	t0,t0,-124 # 2000 <trap_vector>
  84:	30529073          	csrw	mtvec,t0
  88:	0040006f          	j	8c <reset_vector>

0000008c <reset_vector>:
  8c:	00000093          	li	ra,0
  90:	4000d713          	srai	a4,ra,0x0
  94:	00000393          	li	t2,0
  98:	00200193          	li	gp,2
  9c:	2a771463          	bne	a4,t2,344 <fail>

000000a0 <test_3>:
  a0:	800000b7          	lui	ra,0x80000
  a4:	4010d713          	srai	a4,ra,0x1
  a8:	c00003b7          	lui	t2,0xc0000
  ac:	00300193          	li	gp,3
  b0:	28771a63          	bne	a4,t2,344 <fail>

000000b4 <test_4>:
  b4:	800000b7          	lui	ra,0x80000
  b8:	4070d713          	srai	a4,ra,0x7
  bc:	ff0003b7          	lui	t2,0xff000
  c0:	00400193          	li	gp,4
  c4:	28771063          	bne	a4,t2,344 <fail>

000000c8 <test_5>:
  c8:	800000b7          	lui	ra,0x80000
  cc:	40e0d713          	srai	a4,ra,0xe
  d0:	fffe03b7          	lui	t2,0xfffe0
  d4:	00500193          	li	gp,5
  d8:	26771663          	bne	a4,t2,344 <fail>

000000dc <test_6>:
  dc:	800000b7          	lui	ra,0x80000
  e0:	00108093          	addi	ra,ra,1 # 80000001 <_end+0x7fffd001>
  e4:	41f0d713          	srai	a4,ra,0x1f
  e8:	fff00393          	li	t2,-1
  ec:	00600193          	li	gp,6
  f0:	24771a63          	bne	a4,t2,344 <fail>

000000f4 <test_7>:
  f4:	800000b7          	lui	ra,0x80000
  f8:	fff08093          	addi	ra,ra,-1 # 7fffffff <_end+0x7fffcfff>
  fc:	4000d713          	srai	a4,ra,0x0
 100:	800003b7          	lui	t2,0x80000
 104:	fff38393          	addi	t2,t2,-1 # 7fffffff <_end+0x7fffcfff>
 108:	00700193          	li	gp,7
 10c:	22771c63          	bne	a4,t2,344 <fail>

00000110 <test_8>:
 110:	800000b7          	lui	ra,0x80000
 114:	fff08093          	addi	ra,ra,-1 # 7fffffff <_end+0x7fffcfff>
 118:	4010d713          	srai	a4,ra,0x1
 11c:	400003b7          	lui	t2,0x40000
 120:	fff38393          	addi	t2,t2,-1 # 3fffffff <_end+0x3fffcfff>
 124:	00800193          	li	gp,8
 128:	20771e63          	bne	a4,t2,344 <fail>

0000012c <test_9>:
 12c:	800000b7          	lui	ra,0x80000
 130:	fff08093          	addi	ra,ra,-1 # 7fffffff <_end+0x7fffcfff>
 134:	4070d713          	srai	a4,ra,0x7
 138:	010003b7          	lui	t2,0x1000
 13c:	fff38393          	addi	t2,t2,-1 # ffffff <_end+0xffcfff>
 140:	00900193          	li	gp,9
 144:	20771063          	bne	a4,t2,344 <fail>

00000148 <test_10>:
 148:	800000b7          	lui	ra,0x80000
 14c:	fff08093          	addi	ra,ra,-1 # 7fffffff <_end+0x7fffcfff>
 150:	40e0d713          	srai	a4,ra,0xe
 154:	000203b7          	lui	t2,0x20
 158:	fff38393          	addi	t2,t2,-1 # 1ffff <_end+0x1cfff>
 15c:	00a00193          	li	gp,10
 160:	1e771263          	bne	a4,t2,344 <fail>

00000164 <test_11>:
 164:	800000b7          	lui	ra,0x80000
 168:	fff08093          	addi	ra,ra,-1 # 7fffffff <_end+0x7fffcfff>
 16c:	41f0d713          	srai	a4,ra,0x1f
 170:	00000393          	li	t2,0
 174:	00b00193          	li	gp,11
 178:	1c771663          	bne	a4,t2,344 <fail>

0000017c <test_12>:
 17c:	818180b7          	lui	ra,0x81818
 180:	18108093          	addi	ra,ra,385 # 81818181 <_end+0x81815181>
 184:	4000d713          	srai	a4,ra,0x0
 188:	818183b7          	lui	t2,0x81818
 18c:	18138393          	addi	t2,t2,385 # 81818181 <_end+0x81815181>
 190:	00c00193          	li	gp,12
 194:	1a771863          	bne	a4,t2,344 <fail>

00000198 <test_13>:
 198:	818180b7          	lui	ra,0x81818
 19c:	18108093          	addi	ra,ra,385 # 81818181 <_end+0x81815181>
 1a0:	4010d713          	srai	a4,ra,0x1
 1a4:	c0c0c3b7          	lui	t2,0xc0c0c
 1a8:	0c038393          	addi	t2,t2,192 # c0c0c0c0 <_end+0xc0c090c0>
 1ac:	00d00193          	li	gp,13
 1b0:	18771a63          	bne	a4,t2,344 <fail>

000001b4 <test_14>:
 1b4:	818180b7          	lui	ra,0x81818
 1b8:	18108093          	addi	ra,ra,385 # 81818181 <_end+0x81815181>
 1bc:	4070d713          	srai	a4,ra,0x7
 1c0:	ff0303b7          	lui	t2,0xff030
 1c4:	30338393          	addi	t2,t2,771 # ff030303 <_end+0xff02d303>
 1c8:	00e00193          	li	gp,14
 1cc:	16771c63          	bne	a4,t2,344 <fail>

000001d0 <test_15>:
 1d0:	818180b7          	lui	ra,0x81818
 1d4:	18108093          	addi	ra,ra,385 # 81818181 <_end+0x81815181>
 1d8:	40e0d713          	srai	a4,ra,0xe
 1dc:	fffe03b7          	lui	t2,0xfffe0
 1e0:	60638393          	addi	t2,t2,1542 # fffe0606 <_end+0xfffdd606>
 1e4:	00f00193          	li	gp,15
 1e8:	14771e63          	bne	a4,t2,344 <fail>

000001ec <test_16>:
 1ec:	818180b7          	lui	ra,0x81818
 1f0:	18108093          	addi	ra,ra,385 # 81818181 <_end+0x81815181>
 1f4:	41f0d713          	srai	a4,ra,0x1f
 1f8:	fff00393          	li	t2,-1
 1fc:	01000193          	li	gp,16
 200:	14771263          	bne	a4,t2,344 <fail>

00000204 <test_17>:
 204:	800000b7          	lui	ra,0x80000
 208:	4070d093          	srai	ra,ra,0x7
 20c:	ff0003b7          	lui	t2,0xff000
 210:	01100193          	li	gp,17
 214:	12709863          	bne	ra,t2,344 <fail>

00000218 <test_18>:
 218:	00000213          	li	tp,0
 21c:	800000b7          	lui	ra,0x80000
 220:	4070d713          	srai	a4,ra,0x7
 224:	00070313          	mv	t1,a4
 228:	00120213          	addi	tp,tp,1 # 1 <_start+0x1>
 22c:	00200293          	li	t0,2
 230:	fe5216e3          	bne	tp,t0,21c <test_18+0x4>
 234:	ff0003b7          	lui	t2,0xff000
 238:	01200193          	li	gp,18
 23c:	10731463          	bne	t1,t2,344 <fail>

00000240 <test_19>:
 240:	00000213          	li	tp,0
 244:	800000b7          	lui	ra,0x80000
 248:	40e0d713          	srai	a4,ra,0xe
 24c:	00000013          	nop
 250:	00070313          	mv	t1,a4
 254:	00120213          	addi	tp,tp,1 # 1 <_start+0x1>
 258:	00200293          	li	t0,2
 25c:	fe5214e3          	bne	tp,t0,244 <test_19+0x4>
 260:	fffe03b7          	lui	t2,0xfffe0
 264:	01300193          	li	gp,19
 268:	0c731e63          	bne	t1,t2,344 <fail>

0000026c <test_20>:
 26c:	00000213          	li	tp,0
 270:	800000b7          	lui	ra,0x80000
 274:	00108093          	addi	ra,ra,1 # 80000001 <_end+0x7fffd001>
 278:	41f0d713          	srai	a4,ra,0x1f
 27c:	00000013          	nop
 280:	00000013          	nop
 284:	00070313          	mv	t1,a4
 288:	00120213          	addi	tp,tp,1 # 1 <_start+0x1>
 28c:	00200293          	li	t0,2
 290:	fe5210e3          	bne	tp,t0,270 <test_20+0x4>
 294:	fff00393          	li	t2,-1
 298:	01400193          	li	gp,20
 29c:	0a731463          	bne	t1,t2,344 <fail>

000002a0 <test_21>:
 2a0:	00000213          	li	tp,0
 2a4:	800000b7          	lui	ra,0x80000
 2a8:	4070d713          	srai	a4,ra,0x7
 2ac:	00120213          	addi	tp,tp,1 # 1 <_start+0x1>
 2b0:	00200293          	li	t0,2
 2b4:	fe5218e3          	bne	tp,t0,2a4 <test_21+0x4>
 2b8:	ff0003b7          	lui	t2,0xff000
 2bc:	01500193          	li	gp,21
 2c0:	08771263          	bne	a4,t2,344 <fail>

000002c4 <test_22>:
 2c4:	00000213          	li	tp,0
 2c8:	800000b7          	lui	ra,0x80000
 2cc:	00000013          	nop
 2d0:	40e0d713          	srai	a4,ra,0xe
 2d4:	00120213          	addi	tp,tp,1 # 1 <_start+0x1>
 2d8:	00200293          	li	t0,2
 2dc:	fe5216e3          	bne	tp,t0,2c8 <test_22+0x4>
 2e0:	fffe03b7          	lui	t2,0xfffe0
 2e4:	01600193          	li	gp,22
 2e8:	04771e63          	bne	a4,t2,344 <fail>

000002ec <test_23>:
 2ec:	00000213          	li	tp,0
 2f0:	800000b7          	lui	ra,0x80000
 2f4:	00108093          	addi	ra,ra,1 # 80000001 <_end+0x7fffd001>
 2f8:	00000013          	nop
 2fc:	00000013          	nop
 300:	41f0d713          	srai	a4,ra,0x1f
 304:	00120213          	addi	tp,tp,1 # 1 <_start+0x1>
 308:	00200293          	li	t0,2
 30c:	fe5212e3          	bne	tp,t0,2f0 <test_23+0x4>
 310:	fff00393          	li	t2,-1
 314:	01700193          	li	gp,23
 318:	02771663          	bne	a4,t2,344 <fail>

0000031c <test_24>:
 31c:	40405093          	srai	ra,zero,0x4
 320:	00000393          	li	t2,0
 324:	01800193          	li	gp,24
 328:	00709e63          	bne	ra,t2,344 <fail>

0000032c <test_25>:
 32c:	02100093          	li	ra,33
 330:	40a0d013          	srai	zero,ra,0xa
 334:	00000393          	li	t2,0
 338:	01900193          	li	gp,25
 33c:	00701463          	bne	zero,t2,344 <fail>
 340:	00301663          	bne	zero,gp,34c <pass>

00000344 <fail>:
 344:	0ff0000f          	fence
 348:	00100073          	ebreak

0000034c <pass>:
 34c:	d01e5537          	lui	a0,0xd01e5
 350:	a5550513          	addi	a0,a0,-1451 # d01e4a55 <_end+0xd01e1a55>
 354:	00a02023          	sw	a0,0(zero) # 0 <_start>
 358:	0ff0000f          	fence
 35c:	00100073          	ebreak
 360:	d01e5537          	lui	a0,0xd01e5
 364:	a5550513          	addi	a0,a0,-1451 # d01e4a55 <_end+0xd01e1a55>
 368:	00a02023          	sw	a0,0(zero) # 0 <_start>
 36c:	0ff0000f          	fence
 370:	00100073          	ebreak
 374:	0000                	unimp
 376:	0000                	unimp
 378:	0000                	unimp
 37a:	0000                	unimp
 37c:	0000                	unimp
 37e:	0000                	unimp
 380:	0000                	unimp
 382:	0000                	unimp

Disassembly of section .text:

00002000 <trap_vector>:
    2000:	0ff0000f          	fence
    2004:	00100073          	ebreak
