
output/sw.elf:     file format elf32-littleriscv


Disassembly of section .text.init:

00000000 <_start>:
   0:	00000093          	li	ra,0
   4:	00000113          	li	sp,0
   8:	00000193          	li	gp,0
   c:	00000213          	li	tp,0
  10:	00000293          	li	t0,0
  14:	00000313          	li	t1,0
  18:	00000393          	li	t2,0
  1c:	00000413          	li	s0,0
  20:	00000493          	li	s1,0
  24:	00000513          	li	a0,0
  28:	00000593          	li	a1,0
  2c:	00000613          	li	a2,0
  30:	00000693          	li	a3,0
  34:	00000713          	li	a4,0
  38:	00000793          	li	a5,0
  3c:	00000813          	li	a6,0
  40:	00000893          	li	a7,0
  44:	00000913          	li	s2,0
  48:	00000993          	li	s3,0
  4c:	00000a13          	li	s4,0
  50:	00000a93          	li	s5,0
  54:	00000b13          	li	s6,0
  58:	00000b93          	li	s7,0
  5c:	00000c13          	li	s8,0
  60:	00000c93          	li	s9,0
  64:	00000d13          	li	s10,0
  68:	00000d93          	li	s11,0
  6c:	00000e13          	li	t3,0
  70:	00000e93          	li	t4,0
  74:	00000f13          	li	t5,0
  78:	00000f93          	li	t6,0
  7c:	0080006f          	j	84 <reset_vector>

00000080 <trap_vector>:
  80:	00100073          	ebreak

00000084 <reset_vector>:
  84:	00002097          	auipc	ra,0x2
  88:	f7c08093          	addi	ra,ra,-132 # 2000 <begin_signature>
  8c:	00aa0137          	lui	sp,0xaa0
  90:	0aa10113          	addi	sp,sp,170 # aa00aa <_end+0xa9e07a>
  94:	0020a023          	sw	sp,0(ra)
  98:	0000a703          	lw	a4,0(ra)
  9c:	00aa03b7          	lui	t2,0xaa0
  a0:	0aa38393          	addi	t2,t2,170 # aa00aa <_end+0xa9e07a>
  a4:	00200193          	li	gp,2
  a8:	46771063          	bne	a4,t2,508 <fail>

000000ac <test_3>:
  ac:	00002097          	auipc	ra,0x2
  b0:	f5408093          	addi	ra,ra,-172 # 2000 <begin_signature>
  b4:	aa00b137          	lui	sp,0xaa00b
  b8:	a0010113          	addi	sp,sp,-1536 # aa00aa00 <_end+0xaa0089d0>
  bc:	0020a223          	sw	sp,4(ra)
  c0:	0040a703          	lw	a4,4(ra)
  c4:	aa00b3b7          	lui	t2,0xaa00b
  c8:	a0038393          	addi	t2,t2,-1536 # aa00aa00 <_end+0xaa0089d0>
  cc:	00300193          	li	gp,3
  d0:	42771c63          	bne	a4,t2,508 <fail>

000000d4 <test_4>:
  d4:	00002097          	auipc	ra,0x2
  d8:	f2c08093          	addi	ra,ra,-212 # 2000 <begin_signature>
  dc:	0aa01137          	lui	sp,0xaa01
  e0:	aa010113          	addi	sp,sp,-1376 # aa00aa0 <_end+0xa9fea70>
  e4:	0020a423          	sw	sp,8(ra)
  e8:	0080a703          	lw	a4,8(ra)
  ec:	0aa013b7          	lui	t2,0xaa01
  f0:	aa038393          	addi	t2,t2,-1376 # aa00aa0 <_end+0xa9fea70>
  f4:	00400193          	li	gp,4
  f8:	40771863          	bne	a4,t2,508 <fail>

000000fc <test_5>:
  fc:	00002097          	auipc	ra,0x2
 100:	f0408093          	addi	ra,ra,-252 # 2000 <begin_signature>
 104:	a00aa137          	lui	sp,0xa00aa
 108:	00a10113          	addi	sp,sp,10 # a00aa00a <_end+0xa00a7fda>
 10c:	0020a623          	sw	sp,12(ra)
 110:	00c0a703          	lw	a4,12(ra)
 114:	a00aa3b7          	lui	t2,0xa00aa
 118:	00a38393          	addi	t2,t2,10 # a00aa00a <_end+0xa00a7fda>
 11c:	00500193          	li	gp,5
 120:	3e771463          	bne	a4,t2,508 <fail>

00000124 <test_6>:
 124:	00002097          	auipc	ra,0x2
 128:	ef808093          	addi	ra,ra,-264 # 201c <tdat8>
 12c:	00aa0137          	lui	sp,0xaa0
 130:	0aa10113          	addi	sp,sp,170 # aa00aa <_end+0xa9e07a>
 134:	fe20aa23          	sw	sp,-12(ra)
 138:	ff40a703          	lw	a4,-12(ra)
 13c:	00aa03b7          	lui	t2,0xaa0
 140:	0aa38393          	addi	t2,t2,170 # aa00aa <_end+0xa9e07a>
 144:	00600193          	li	gp,6
 148:	3c771063          	bne	a4,t2,508 <fail>

0000014c <test_7>:
 14c:	00002097          	auipc	ra,0x2
 150:	ed008093          	addi	ra,ra,-304 # 201c <tdat8>
 154:	aa00b137          	lui	sp,0xaa00b
 158:	a0010113          	addi	sp,sp,-1536 # aa00aa00 <_end+0xaa0089d0>
 15c:	fe20ac23          	sw	sp,-8(ra)
 160:	ff80a703          	lw	a4,-8(ra)
 164:	aa00b3b7          	lui	t2,0xaa00b
 168:	a0038393          	addi	t2,t2,-1536 # aa00aa00 <_end+0xaa0089d0>
 16c:	00700193          	li	gp,7
 170:	38771c63          	bne	a4,t2,508 <fail>

00000174 <test_8>:
 174:	00002097          	auipc	ra,0x2
 178:	ea808093          	addi	ra,ra,-344 # 201c <tdat8>
 17c:	0aa01137          	lui	sp,0xaa01
 180:	aa010113          	addi	sp,sp,-1376 # aa00aa0 <_end+0xa9fea70>
 184:	fe20ae23          	sw	sp,-4(ra)
 188:	ffc0a703          	lw	a4,-4(ra)
 18c:	0aa013b7          	lui	t2,0xaa01
 190:	aa038393          	addi	t2,t2,-1376 # aa00aa0 <_end+0xa9fea70>
 194:	00800193          	li	gp,8
 198:	36771863          	bne	a4,t2,508 <fail>

0000019c <test_9>:
 19c:	00002097          	auipc	ra,0x2
 1a0:	e8008093          	addi	ra,ra,-384 # 201c <tdat8>
 1a4:	a00aa137          	lui	sp,0xa00aa
 1a8:	00a10113          	addi	sp,sp,10 # a00aa00a <_end+0xa00a7fda>
 1ac:	0020a023          	sw	sp,0(ra)
 1b0:	0000a703          	lw	a4,0(ra)
 1b4:	a00aa3b7          	lui	t2,0xa00aa
 1b8:	00a38393          	addi	t2,t2,10 # a00aa00a <_end+0xa00a7fda>
 1bc:	00900193          	li	gp,9
 1c0:	34771463          	bne	a4,t2,508 <fail>

000001c4 <test_10>:
 1c4:	00002097          	auipc	ra,0x2
 1c8:	e5c08093          	addi	ra,ra,-420 # 2020 <tdat9>
 1cc:	12345137          	lui	sp,0x12345
 1d0:	67810113          	addi	sp,sp,1656 # 12345678 <_end+0x12343648>
 1d4:	fe008213          	addi	tp,ra,-32
 1d8:	02222023          	sw	sp,32(tp) # 20 <_start+0x20>
 1dc:	0000a283          	lw	t0,0(ra)
 1e0:	123453b7          	lui	t2,0x12345
 1e4:	67838393          	addi	t2,t2,1656 # 12345678 <_end+0x12343648>
 1e8:	00a00193          	li	gp,10
 1ec:	30729e63          	bne	t0,t2,508 <fail>

000001f0 <test_11>:
 1f0:	00002097          	auipc	ra,0x2
 1f4:	e3008093          	addi	ra,ra,-464 # 2020 <tdat9>
 1f8:	58213137          	lui	sp,0x58213
 1fc:	09810113          	addi	sp,sp,152 # 58213098 <_end+0x58211068>
 200:	ffd08093          	addi	ra,ra,-3
 204:	0020a3a3          	sw	sp,7(ra)
 208:	00002217          	auipc	tp,0x2
 20c:	e1c20213          	addi	tp,tp,-484 # 2024 <tdat10>
 210:	00022283          	lw	t0,0(tp) # 0 <_start>
 214:	582133b7          	lui	t2,0x58213
 218:	09838393          	addi	t2,t2,152 # 58213098 <_end+0x58211068>
 21c:	00b00193          	li	gp,11
 220:	2e729463          	bne	t0,t2,508 <fail>

00000224 <test_12>:
 224:	00c00193          	li	gp,12
 228:	00000213          	li	tp,0
 22c:	aabbd0b7          	lui	ra,0xaabbd
 230:	cdd08093          	addi	ra,ra,-803 # aabbccdd <_end+0xaabbacad>
 234:	00002117          	auipc	sp,0x2
 238:	dcc10113          	addi	sp,sp,-564 # 2000 <begin_signature>
 23c:	00112023          	sw	ra,0(sp)
 240:	00012703          	lw	a4,0(sp)
 244:	aabbd3b7          	lui	t2,0xaabbd
 248:	cdd38393          	addi	t2,t2,-803 # aabbccdd <_end+0xaabbacad>
 24c:	2a771e63          	bne	a4,t2,508 <fail>
 250:	00120213          	addi	tp,tp,1 # 1 <_start+0x1>
 254:	00200293          	li	t0,2
 258:	fc521ae3          	bne	tp,t0,22c <test_12+0x8>

0000025c <test_13>:
 25c:	00d00193          	li	gp,13
 260:	00000213          	li	tp,0
 264:	daabc0b7          	lui	ra,0xdaabc
 268:	ccd08093          	addi	ra,ra,-819 # daabbccd <_end+0xdaab9c9d>
 26c:	00002117          	auipc	sp,0x2
 270:	d9410113          	addi	sp,sp,-620 # 2000 <begin_signature>
 274:	00000013          	nop
 278:	00112223          	sw	ra,4(sp)
 27c:	00412703          	lw	a4,4(sp)
 280:	daabc3b7          	lui	t2,0xdaabc
 284:	ccd38393          	addi	t2,t2,-819 # daabbccd <_end+0xdaab9c9d>
 288:	28771063          	bne	a4,t2,508 <fail>
 28c:	00120213          	addi	tp,tp,1 # 1 <_start+0x1>
 290:	00200293          	li	t0,2
 294:	fc5218e3          	bne	tp,t0,264 <test_13+0x8>

00000298 <test_14>:
 298:	00e00193          	li	gp,14
 29c:	00000213          	li	tp,0
 2a0:	ddaac0b7          	lui	ra,0xddaac
 2a4:	bcc08093          	addi	ra,ra,-1076 # ddaabbcc <_end+0xddaa9b9c>
 2a8:	00002117          	auipc	sp,0x2
 2ac:	d5810113          	addi	sp,sp,-680 # 2000 <begin_signature>
 2b0:	00000013          	nop
 2b4:	00000013          	nop
 2b8:	00112423          	sw	ra,8(sp)
 2bc:	00812703          	lw	a4,8(sp)
 2c0:	ddaac3b7          	lui	t2,0xddaac
 2c4:	bcc38393          	addi	t2,t2,-1076 # ddaabbcc <_end+0xddaa9b9c>
 2c8:	24771063          	bne	a4,t2,508 <fail>
 2cc:	00120213          	addi	tp,tp,1 # 1 <_start+0x1>
 2d0:	00200293          	li	t0,2
 2d4:	fc5216e3          	bne	tp,t0,2a0 <test_14+0x8>

000002d8 <test_15>:
 2d8:	00f00193          	li	gp,15
 2dc:	00000213          	li	tp,0
 2e0:	cddab0b7          	lui	ra,0xcddab
 2e4:	bbc08093          	addi	ra,ra,-1092 # cddaabbc <_end+0xcdda8b8c>
 2e8:	00000013          	nop
 2ec:	00002117          	auipc	sp,0x2
 2f0:	d1410113          	addi	sp,sp,-748 # 2000 <begin_signature>
 2f4:	00112623          	sw	ra,12(sp)
 2f8:	00c12703          	lw	a4,12(sp)
 2fc:	cddab3b7          	lui	t2,0xcddab
 300:	bbc38393          	addi	t2,t2,-1092 # cddaabbc <_end+0xcdda8b8c>
 304:	20771263          	bne	a4,t2,508 <fail>
 308:	00120213          	addi	tp,tp,1 # 1 <_start+0x1>
 30c:	00200293          	li	t0,2
 310:	fc5218e3          	bne	tp,t0,2e0 <test_15+0x8>

00000314 <test_16>:
 314:	01000193          	li	gp,16
 318:	00000213          	li	tp,0
 31c:	ccddb0b7          	lui	ra,0xccddb
 320:	abb08093          	addi	ra,ra,-1349 # ccddaabb <_end+0xccdd8a8b>
 324:	00000013          	nop
 328:	00002117          	auipc	sp,0x2
 32c:	cd810113          	addi	sp,sp,-808 # 2000 <begin_signature>
 330:	00000013          	nop
 334:	00112823          	sw	ra,16(sp)
 338:	01012703          	lw	a4,16(sp)
 33c:	ccddb3b7          	lui	t2,0xccddb
 340:	abb38393          	addi	t2,t2,-1349 # ccddaabb <_end+0xccdd8a8b>
 344:	1c771263          	bne	a4,t2,508 <fail>
 348:	00120213          	addi	tp,tp,1 # 1 <_start+0x1>
 34c:	00200293          	li	t0,2
 350:	fc5216e3          	bne	tp,t0,31c <test_16+0x8>

00000354 <test_17>:
 354:	01100193          	li	gp,17
 358:	00000213          	li	tp,0
 35c:	bccde0b7          	lui	ra,0xbccde
 360:	aab08093          	addi	ra,ra,-1365 # bccddaab <_end+0xbccdba7b>
 364:	00000013          	nop
 368:	00000013          	nop
 36c:	00002117          	auipc	sp,0x2
 370:	c9410113          	addi	sp,sp,-876 # 2000 <begin_signature>
 374:	00112a23          	sw	ra,20(sp)
 378:	01412703          	lw	a4,20(sp)
 37c:	bccde3b7          	lui	t2,0xbccde
 380:	aab38393          	addi	t2,t2,-1365 # bccddaab <_end+0xbccdba7b>
 384:	18771263          	bne	a4,t2,508 <fail>
 388:	00120213          	addi	tp,tp,1 # 1 <_start+0x1>
 38c:	00200293          	li	t0,2
 390:	fc5216e3          	bne	tp,t0,35c <test_17+0x8>

00000394 <test_18>:
 394:	01200193          	li	gp,18
 398:	00000213          	li	tp,0
 39c:	00002117          	auipc	sp,0x2
 3a0:	c6410113          	addi	sp,sp,-924 # 2000 <begin_signature>
 3a4:	001120b7          	lui	ra,0x112
 3a8:	23308093          	addi	ra,ra,563 # 112233 <_end+0x110203>
 3ac:	00112023          	sw	ra,0(sp)
 3b0:	00012703          	lw	a4,0(sp)
 3b4:	001123b7          	lui	t2,0x112
 3b8:	23338393          	addi	t2,t2,563 # 112233 <_end+0x110203>
 3bc:	14771663          	bne	a4,t2,508 <fail>
 3c0:	00120213          	addi	tp,tp,1 # 1 <_start+0x1>
 3c4:	00200293          	li	t0,2
 3c8:	fc521ae3          	bne	tp,t0,39c <test_18+0x8>

000003cc <test_19>:
 3cc:	01300193          	li	gp,19
 3d0:	00000213          	li	tp,0
 3d4:	00002117          	auipc	sp,0x2
 3d8:	c2c10113          	addi	sp,sp,-980 # 2000 <begin_signature>
 3dc:	300110b7          	lui	ra,0x30011
 3e0:	22308093          	addi	ra,ra,547 # 30011223 <_end+0x3000f1f3>
 3e4:	00000013          	nop
 3e8:	00112223          	sw	ra,4(sp)
 3ec:	00412703          	lw	a4,4(sp)
 3f0:	300113b7          	lui	t2,0x30011
 3f4:	22338393          	addi	t2,t2,547 # 30011223 <_end+0x3000f1f3>
 3f8:	10771863          	bne	a4,t2,508 <fail>
 3fc:	00120213          	addi	tp,tp,1 # 1 <_start+0x1>
 400:	00200293          	li	t0,2
 404:	fc5218e3          	bne	tp,t0,3d4 <test_19+0x8>

00000408 <test_20>:
 408:	01400193          	li	gp,20
 40c:	00000213          	li	tp,0
 410:	00002117          	auipc	sp,0x2
 414:	bf010113          	addi	sp,sp,-1040 # 2000 <begin_signature>
 418:	330010b7          	lui	ra,0x33001
 41c:	12208093          	addi	ra,ra,290 # 33001122 <_end+0x32fff0f2>
 420:	00000013          	nop
 424:	00000013          	nop
 428:	00112423          	sw	ra,8(sp)
 42c:	00812703          	lw	a4,8(sp)
 430:	330013b7          	lui	t2,0x33001
 434:	12238393          	addi	t2,t2,290 # 33001122 <_end+0x32fff0f2>
 438:	0c771863          	bne	a4,t2,508 <fail>
 43c:	00120213          	addi	tp,tp,1 # 1 <_start+0x1>
 440:	00200293          	li	t0,2
 444:	fc5216e3          	bne	tp,t0,410 <test_20+0x8>

00000448 <test_21>:
 448:	01500193          	li	gp,21
 44c:	00000213          	li	tp,0
 450:	00002117          	auipc	sp,0x2
 454:	bb010113          	addi	sp,sp,-1104 # 2000 <begin_signature>
 458:	00000013          	nop
 45c:	233000b7          	lui	ra,0x23300
 460:	11208093          	addi	ra,ra,274 # 23300112 <_end+0x232fe0e2>
 464:	00112623          	sw	ra,12(sp)
 468:	00c12703          	lw	a4,12(sp)
 46c:	233003b7          	lui	t2,0x23300
 470:	11238393          	addi	t2,t2,274 # 23300112 <_end+0x232fe0e2>
 474:	08771a63          	bne	a4,t2,508 <fail>
 478:	00120213          	addi	tp,tp,1 # 1 <_start+0x1>
 47c:	00200293          	li	t0,2
 480:	fc5218e3          	bne	tp,t0,450 <test_21+0x8>

00000484 <test_22>:
 484:	01600193          	li	gp,22
 488:	00000213          	li	tp,0
 48c:	00002117          	auipc	sp,0x2
 490:	b7410113          	addi	sp,sp,-1164 # 2000 <begin_signature>
 494:	00000013          	nop
 498:	223300b7          	lui	ra,0x22330
 49c:	01108093          	addi	ra,ra,17 # 22330011 <_end+0x2232dfe1>
 4a0:	00000013          	nop
 4a4:	00112823          	sw	ra,16(sp)
 4a8:	01012703          	lw	a4,16(sp)
 4ac:	223303b7          	lui	t2,0x22330
 4b0:	01138393          	addi	t2,t2,17 # 22330011 <_end+0x2232dfe1>
 4b4:	04771a63          	bne	a4,t2,508 <fail>
 4b8:	00120213          	addi	tp,tp,1 # 1 <_start+0x1>
 4bc:	00200293          	li	t0,2
 4c0:	fc5216e3          	bne	tp,t0,48c <test_22+0x8>

000004c4 <test_23>:
 4c4:	01700193          	li	gp,23
 4c8:	00000213          	li	tp,0
 4cc:	00002117          	auipc	sp,0x2
 4d0:	b3410113          	addi	sp,sp,-1228 # 2000 <begin_signature>
 4d4:	00000013          	nop
 4d8:	00000013          	nop
 4dc:	122330b7          	lui	ra,0x12233
 4e0:	00108093          	addi	ra,ra,1 # 12233001 <_end+0x12230fd1>
 4e4:	00112a23          	sw	ra,20(sp)
 4e8:	01412703          	lw	a4,20(sp)
 4ec:	122333b7          	lui	t2,0x12233
 4f0:	00138393          	addi	t2,t2,1 # 12233001 <_end+0x12230fd1>
 4f4:	00771a63          	bne	a4,t2,508 <fail>
 4f8:	00120213          	addi	tp,tp,1 # 1 <_start+0x1>
 4fc:	00200293          	li	t0,2
 500:	fc5216e3          	bne	tp,t0,4cc <test_23+0x8>
 504:	00301463          	bne	zero,gp,50c <pass>

00000508 <fail>:
 508:	00100073          	ebreak

0000050c <pass>:
 50c:	d01e5537          	lui	a0,0xd01e5
 510:	a5550513          	addi	a0,a0,-1451 # d01e4a55 <_end+0xd01e2a25>
 514:	00a02023          	sw	a0,0(zero) # 0 <_start>
 518:	00100073          	ebreak
 51c:	0000                	unimp
 51e:	0000                	unimp
 520:	0000                	unimp
 522:	0000                	unimp
 524:	0000                	unimp
 526:	0000                	unimp
 528:	0000                	unimp
 52a:	0000                	unimp
 52c:	0000                	unimp
 52e:	0000                	unimp
 530:	0000                	unimp
 532:	0000                	unimp
 534:	0000                	unimp
 536:	0000                	unimp
 538:	0000                	unimp
 53a:	0000                	unimp
 53c:	0000                	unimp
 53e:	0000                	unimp
 540:	0000                	unimp
 542:	0000                	unimp
