
output/xor.elf:     file format elf32-littleriscv


Disassembly of section .text.init:

00000000 <_start>:
   0:	00000093          	li	ra,0
   4:	00000113          	li	sp,0
   8:	00000193          	li	gp,0
   c:	00000213          	li	tp,0
  10:	00000293          	li	t0,0
  14:	00000313          	li	t1,0
  18:	00000393          	li	t2,0
  1c:	00000413          	li	s0,0
  20:	00000493          	li	s1,0
  24:	00000513          	li	a0,0
  28:	00000593          	li	a1,0
  2c:	00000613          	li	a2,0
  30:	00000693          	li	a3,0
  34:	00000713          	li	a4,0
  38:	00000793          	li	a5,0
  3c:	00000813          	li	a6,0
  40:	00000893          	li	a7,0
  44:	00000913          	li	s2,0
  48:	00000993          	li	s3,0
  4c:	00000a13          	li	s4,0
  50:	00000a93          	li	s5,0
  54:	00000b13          	li	s6,0
  58:	00000b93          	li	s7,0
  5c:	00000c13          	li	s8,0
  60:	00000c93          	li	s9,0
  64:	00000d13          	li	s10,0
  68:	00000d93          	li	s11,0
  6c:	00000e13          	li	t3,0
  70:	00000e93          	li	t4,0
  74:	00000f13          	li	t5,0
  78:	00000f93          	li	t6,0
  7c:	00002297          	auipc	t0,0x2
  80:	f8428293          	addi	t0,t0,-124 # 2000 <trap_vector>
  84:	30529073          	csrw	mtvec,t0
  88:	0040006f          	j	8c <reset_vector>

0000008c <reset_vector>:
  8c:	ff0100b7          	lui	ra,0xff010
  90:	f0008093          	addi	ra,ra,-256 # ff00ff00 <_end+0xff00cf00>
  94:	0f0f1137          	lui	sp,0xf0f1
  98:	f0f10113          	addi	sp,sp,-241 # f0f0f0f <_end+0xf0edf0f>
  9c:	0020c733          	xor	a4,ra,sp
  a0:	f00ff3b7          	lui	t2,0xf00ff
  a4:	00f38393          	addi	t2,t2,15 # f00ff00f <_end+0xf00fc00f>
  a8:	00200193          	li	gp,2
  ac:	4a771063          	bne	a4,t2,54c <fail>

000000b0 <test_3>:
  b0:	0ff010b7          	lui	ra,0xff01
  b4:	ff008093          	addi	ra,ra,-16 # ff00ff0 <_end+0xfefdff0>
  b8:	f0f0f137          	lui	sp,0xf0f0f
  bc:	0f010113          	addi	sp,sp,240 # f0f0f0f0 <_end+0xf0f0c0f0>
  c0:	0020c733          	xor	a4,ra,sp
  c4:	ff0103b7          	lui	t2,0xff010
  c8:	f0038393          	addi	t2,t2,-256 # ff00ff00 <_end+0xff00cf00>
  cc:	00300193          	li	gp,3
  d0:	46771e63          	bne	a4,t2,54c <fail>

000000d4 <test_4>:
  d4:	00ff00b7          	lui	ra,0xff0
  d8:	0ff08093          	addi	ra,ra,255 # ff00ff <_end+0xfed0ff>
  dc:	0f0f1137          	lui	sp,0xf0f1
  e0:	f0f10113          	addi	sp,sp,-241 # f0f0f0f <_end+0xf0edf0f>
  e4:	0020c733          	xor	a4,ra,sp
  e8:	0ff013b7          	lui	t2,0xff01
  ec:	ff038393          	addi	t2,t2,-16 # ff00ff0 <_end+0xfefdff0>
  f0:	00400193          	li	gp,4
  f4:	44771c63          	bne	a4,t2,54c <fail>

000000f8 <test_5>:
  f8:	f00ff0b7          	lui	ra,0xf00ff
  fc:	00f08093          	addi	ra,ra,15 # f00ff00f <_end+0xf00fc00f>
 100:	f0f0f137          	lui	sp,0xf0f0f
 104:	0f010113          	addi	sp,sp,240 # f0f0f0f0 <_end+0xf0f0c0f0>
 108:	0020c733          	xor	a4,ra,sp
 10c:	00ff03b7          	lui	t2,0xff0
 110:	0ff38393          	addi	t2,t2,255 # ff00ff <_end+0xfed0ff>
 114:	00500193          	li	gp,5
 118:	42771a63          	bne	a4,t2,54c <fail>

0000011c <test_6>:
 11c:	ff0100b7          	lui	ra,0xff010
 120:	f0008093          	addi	ra,ra,-256 # ff00ff00 <_end+0xff00cf00>
 124:	0f0f1137          	lui	sp,0xf0f1
 128:	f0f10113          	addi	sp,sp,-241 # f0f0f0f <_end+0xf0edf0f>
 12c:	0020c0b3          	xor	ra,ra,sp
 130:	f00ff3b7          	lui	t2,0xf00ff
 134:	00f38393          	addi	t2,t2,15 # f00ff00f <_end+0xf00fc00f>
 138:	00600193          	li	gp,6
 13c:	40709863          	bne	ra,t2,54c <fail>

00000140 <test_7>:
 140:	ff0100b7          	lui	ra,0xff010
 144:	f0008093          	addi	ra,ra,-256 # ff00ff00 <_end+0xff00cf00>
 148:	0f0f1137          	lui	sp,0xf0f1
 14c:	f0f10113          	addi	sp,sp,-241 # f0f0f0f <_end+0xf0edf0f>
 150:	0020c133          	xor	sp,ra,sp
 154:	f00ff3b7          	lui	t2,0xf00ff
 158:	00f38393          	addi	t2,t2,15 # f00ff00f <_end+0xf00fc00f>
 15c:	00700193          	li	gp,7
 160:	3e711663          	bne	sp,t2,54c <fail>

00000164 <test_8>:
 164:	ff0100b7          	lui	ra,0xff010
 168:	f0008093          	addi	ra,ra,-256 # ff00ff00 <_end+0xff00cf00>
 16c:	0010c0b3          	xor	ra,ra,ra
 170:	00000393          	li	t2,0
 174:	00800193          	li	gp,8
 178:	3c709a63          	bne	ra,t2,54c <fail>

0000017c <test_9>:
 17c:	00000213          	li	tp,0
 180:	ff0100b7          	lui	ra,0xff010
 184:	f0008093          	addi	ra,ra,-256 # ff00ff00 <_end+0xff00cf00>
 188:	0f0f1137          	lui	sp,0xf0f1
 18c:	f0f10113          	addi	sp,sp,-241 # f0f0f0f <_end+0xf0edf0f>
 190:	0020c733          	xor	a4,ra,sp
 194:	00070313          	mv	t1,a4
 198:	00120213          	addi	tp,tp,1 # 1 <_start+0x1>
 19c:	00200293          	li	t0,2
 1a0:	fe5210e3          	bne	tp,t0,180 <test_9+0x4>
 1a4:	f00ff3b7          	lui	t2,0xf00ff
 1a8:	00f38393          	addi	t2,t2,15 # f00ff00f <_end+0xf00fc00f>
 1ac:	00900193          	li	gp,9
 1b0:	38731e63          	bne	t1,t2,54c <fail>

000001b4 <test_10>:
 1b4:	00000213          	li	tp,0
 1b8:	0ff010b7          	lui	ra,0xff01
 1bc:	ff008093          	addi	ra,ra,-16 # ff00ff0 <_end+0xfefdff0>
 1c0:	f0f0f137          	lui	sp,0xf0f0f
 1c4:	0f010113          	addi	sp,sp,240 # f0f0f0f0 <_end+0xf0f0c0f0>
 1c8:	0020c733          	xor	a4,ra,sp
 1cc:	00000013          	nop
 1d0:	00070313          	mv	t1,a4
 1d4:	00120213          	addi	tp,tp,1 # 1 <_start+0x1>
 1d8:	00200293          	li	t0,2
 1dc:	fc521ee3          	bne	tp,t0,1b8 <test_10+0x4>
 1e0:	ff0103b7          	lui	t2,0xff010
 1e4:	f0038393          	addi	t2,t2,-256 # ff00ff00 <_end+0xff00cf00>
 1e8:	00a00193          	li	gp,10
 1ec:	36731063          	bne	t1,t2,54c <fail>

000001f0 <test_11>:
 1f0:	00000213          	li	tp,0
 1f4:	00ff00b7          	lui	ra,0xff0
 1f8:	0ff08093          	addi	ra,ra,255 # ff00ff <_end+0xfed0ff>
 1fc:	0f0f1137          	lui	sp,0xf0f1
 200:	f0f10113          	addi	sp,sp,-241 # f0f0f0f <_end+0xf0edf0f>
 204:	0020c733          	xor	a4,ra,sp
 208:	00000013          	nop
 20c:	00000013          	nop
 210:	00070313          	mv	t1,a4
 214:	00120213          	addi	tp,tp,1 # 1 <_start+0x1>
 218:	00200293          	li	t0,2
 21c:	fc521ce3          	bne	tp,t0,1f4 <test_11+0x4>
 220:	0ff013b7          	lui	t2,0xff01
 224:	ff038393          	addi	t2,t2,-16 # ff00ff0 <_end+0xfefdff0>
 228:	00b00193          	li	gp,11
 22c:	32731063          	bne	t1,t2,54c <fail>

00000230 <test_12>:
 230:	00000213          	li	tp,0
 234:	ff0100b7          	lui	ra,0xff010
 238:	f0008093          	addi	ra,ra,-256 # ff00ff00 <_end+0xff00cf00>
 23c:	0f0f1137          	lui	sp,0xf0f1
 240:	f0f10113          	addi	sp,sp,-241 # f0f0f0f <_end+0xf0edf0f>
 244:	0020c733          	xor	a4,ra,sp
 248:	00120213          	addi	tp,tp,1 # 1 <_start+0x1>
 24c:	00200293          	li	t0,2
 250:	fe5212e3          	bne	tp,t0,234 <test_12+0x4>
 254:	f00ff3b7          	lui	t2,0xf00ff
 258:	00f38393          	addi	t2,t2,15 # f00ff00f <_end+0xf00fc00f>
 25c:	00c00193          	li	gp,12
 260:	2e771663          	bne	a4,t2,54c <fail>

00000264 <test_13>:
 264:	00000213          	li	tp,0
 268:	0ff010b7          	lui	ra,0xff01
 26c:	ff008093          	addi	ra,ra,-16 # ff00ff0 <_end+0xfefdff0>
 270:	f0f0f137          	lui	sp,0xf0f0f
 274:	0f010113          	addi	sp,sp,240 # f0f0f0f0 <_end+0xf0f0c0f0>
 278:	00000013          	nop
 27c:	0020c733          	xor	a4,ra,sp
 280:	00120213          	addi	tp,tp,1 # 1 <_start+0x1>
 284:	00200293          	li	t0,2
 288:	fe5210e3          	bne	tp,t0,268 <test_13+0x4>
 28c:	ff0103b7          	lui	t2,0xff010
 290:	f0038393          	addi	t2,t2,-256 # ff00ff00 <_end+0xff00cf00>
 294:	00d00193          	li	gp,13
 298:	2a771a63          	bne	a4,t2,54c <fail>

0000029c <test_14>:
 29c:	00000213          	li	tp,0
 2a0:	00ff00b7          	lui	ra,0xff0
 2a4:	0ff08093          	addi	ra,ra,255 # ff00ff <_end+0xfed0ff>
 2a8:	0f0f1137          	lui	sp,0xf0f1
 2ac:	f0f10113          	addi	sp,sp,-241 # f0f0f0f <_end+0xf0edf0f>
 2b0:	00000013          	nop
 2b4:	00000013          	nop
 2b8:	0020c733          	xor	a4,ra,sp
 2bc:	00120213          	addi	tp,tp,1 # 1 <_start+0x1>
 2c0:	00200293          	li	t0,2
 2c4:	fc521ee3          	bne	tp,t0,2a0 <test_14+0x4>
 2c8:	0ff013b7          	lui	t2,0xff01
 2cc:	ff038393          	addi	t2,t2,-16 # ff00ff0 <_end+0xfefdff0>
 2d0:	00e00193          	li	gp,14
 2d4:	26771c63          	bne	a4,t2,54c <fail>

000002d8 <test_15>:
 2d8:	00000213          	li	tp,0
 2dc:	ff0100b7          	lui	ra,0xff010
 2e0:	f0008093          	addi	ra,ra,-256 # ff00ff00 <_end+0xff00cf00>
 2e4:	00000013          	nop
 2e8:	0f0f1137          	lui	sp,0xf0f1
 2ec:	f0f10113          	addi	sp,sp,-241 # f0f0f0f <_end+0xf0edf0f>
 2f0:	0020c733          	xor	a4,ra,sp
 2f4:	00120213          	addi	tp,tp,1 # 1 <_start+0x1>
 2f8:	00200293          	li	t0,2
 2fc:	fe5210e3          	bne	tp,t0,2dc <test_15+0x4>
 300:	f00ff3b7          	lui	t2,0xf00ff
 304:	00f38393          	addi	t2,t2,15 # f00ff00f <_end+0xf00fc00f>
 308:	00f00193          	li	gp,15
 30c:	24771063          	bne	a4,t2,54c <fail>

00000310 <test_16>:
 310:	00000213          	li	tp,0
 314:	0ff010b7          	lui	ra,0xff01
 318:	ff008093          	addi	ra,ra,-16 # ff00ff0 <_end+0xfefdff0>
 31c:	00000013          	nop
 320:	f0f0f137          	lui	sp,0xf0f0f
 324:	0f010113          	addi	sp,sp,240 # f0f0f0f0 <_end+0xf0f0c0f0>
 328:	00000013          	nop
 32c:	0020c733          	xor	a4,ra,sp
 330:	00120213          	addi	tp,tp,1 # 1 <_start+0x1>
 334:	00200293          	li	t0,2
 338:	fc521ee3          	bne	tp,t0,314 <test_16+0x4>
 33c:	ff0103b7          	lui	t2,0xff010
 340:	f0038393          	addi	t2,t2,-256 # ff00ff00 <_end+0xff00cf00>
 344:	01000193          	li	gp,16
 348:	20771263          	bne	a4,t2,54c <fail>

0000034c <test_17>:
 34c:	00000213          	li	tp,0
 350:	00ff00b7          	lui	ra,0xff0
 354:	0ff08093          	addi	ra,ra,255 # ff00ff <_end+0xfed0ff>
 358:	00000013          	nop
 35c:	00000013          	nop
 360:	0f0f1137          	lui	sp,0xf0f1
 364:	f0f10113          	addi	sp,sp,-241 # f0f0f0f <_end+0xf0edf0f>
 368:	0020c733          	xor	a4,ra,sp
 36c:	00120213          	addi	tp,tp,1 # 1 <_start+0x1>
 370:	00200293          	li	t0,2
 374:	fc521ee3          	bne	tp,t0,350 <test_17+0x4>
 378:	0ff013b7          	lui	t2,0xff01
 37c:	ff038393          	addi	t2,t2,-16 # ff00ff0 <_end+0xfefdff0>
 380:	01100193          	li	gp,17
 384:	1c771463          	bne	a4,t2,54c <fail>

00000388 <test_18>:
 388:	00000213          	li	tp,0
 38c:	0f0f1137          	lui	sp,0xf0f1
 390:	f0f10113          	addi	sp,sp,-241 # f0f0f0f <_end+0xf0edf0f>
 394:	ff0100b7          	lui	ra,0xff010
 398:	f0008093          	addi	ra,ra,-256 # ff00ff00 <_end+0xff00cf00>
 39c:	0020c733          	xor	a4,ra,sp
 3a0:	00120213          	addi	tp,tp,1 # 1 <_start+0x1>
 3a4:	00200293          	li	t0,2
 3a8:	fe5212e3          	bne	tp,t0,38c <test_18+0x4>
 3ac:	f00ff3b7          	lui	t2,0xf00ff
 3b0:	00f38393          	addi	t2,t2,15 # f00ff00f <_end+0xf00fc00f>
 3b4:	01200193          	li	gp,18
 3b8:	18771a63          	bne	a4,t2,54c <fail>

000003bc <test_19>:
 3bc:	00000213          	li	tp,0
 3c0:	f0f0f137          	lui	sp,0xf0f0f
 3c4:	0f010113          	addi	sp,sp,240 # f0f0f0f0 <_end+0xf0f0c0f0>
 3c8:	0ff010b7          	lui	ra,0xff01
 3cc:	ff008093          	addi	ra,ra,-16 # ff00ff0 <_end+0xfefdff0>
 3d0:	00000013          	nop
 3d4:	0020c733          	xor	a4,ra,sp
 3d8:	00120213          	addi	tp,tp,1 # 1 <_start+0x1>
 3dc:	00200293          	li	t0,2
 3e0:	fe5210e3          	bne	tp,t0,3c0 <test_19+0x4>
 3e4:	ff0103b7          	lui	t2,0xff010
 3e8:	f0038393          	addi	t2,t2,-256 # ff00ff00 <_end+0xff00cf00>
 3ec:	01300193          	li	gp,19
 3f0:	14771e63          	bne	a4,t2,54c <fail>

000003f4 <test_20>:
 3f4:	00000213          	li	tp,0
 3f8:	0f0f1137          	lui	sp,0xf0f1
 3fc:	f0f10113          	addi	sp,sp,-241 # f0f0f0f <_end+0xf0edf0f>
 400:	00ff00b7          	lui	ra,0xff0
 404:	0ff08093          	addi	ra,ra,255 # ff00ff <_end+0xfed0ff>
 408:	00000013          	nop
 40c:	00000013          	nop
 410:	0020c733          	xor	a4,ra,sp
 414:	00120213          	addi	tp,tp,1 # 1 <_start+0x1>
 418:	00200293          	li	t0,2
 41c:	fc521ee3          	bne	tp,t0,3f8 <test_20+0x4>
 420:	0ff013b7          	lui	t2,0xff01
 424:	ff038393          	addi	t2,t2,-16 # ff00ff0 <_end+0xfefdff0>
 428:	01400193          	li	gp,20
 42c:	12771063          	bne	a4,t2,54c <fail>

00000430 <test_21>:
 430:	00000213          	li	tp,0
 434:	0f0f1137          	lui	sp,0xf0f1
 438:	f0f10113          	addi	sp,sp,-241 # f0f0f0f <_end+0xf0edf0f>
 43c:	00000013          	nop
 440:	ff0100b7          	lui	ra,0xff010
 444:	f0008093          	addi	ra,ra,-256 # ff00ff00 <_end+0xff00cf00>
 448:	0020c733          	xor	a4,ra,sp
 44c:	00120213          	addi	tp,tp,1 # 1 <_start+0x1>
 450:	00200293          	li	t0,2
 454:	fe5210e3          	bne	tp,t0,434 <test_21+0x4>
 458:	f00ff3b7          	lui	t2,0xf00ff
 45c:	00f38393          	addi	t2,t2,15 # f00ff00f <_end+0xf00fc00f>
 460:	01500193          	li	gp,21
 464:	0e771463          	bne	a4,t2,54c <fail>

00000468 <test_22>:
 468:	00000213          	li	tp,0
 46c:	f0f0f137          	lui	sp,0xf0f0f
 470:	0f010113          	addi	sp,sp,240 # f0f0f0f0 <_end+0xf0f0c0f0>
 474:	00000013          	nop
 478:	0ff010b7          	lui	ra,0xff01
 47c:	ff008093          	addi	ra,ra,-16 # ff00ff0 <_end+0xfefdff0>
 480:	00000013          	nop
 484:	0020c733          	xor	a4,ra,sp
 488:	00120213          	addi	tp,tp,1 # 1 <_start+0x1>
 48c:	00200293          	li	t0,2
 490:	fc521ee3          	bne	tp,t0,46c <test_22+0x4>
 494:	ff0103b7          	lui	t2,0xff010
 498:	f0038393          	addi	t2,t2,-256 # ff00ff00 <_end+0xff00cf00>
 49c:	01600193          	li	gp,22
 4a0:	0a771663          	bne	a4,t2,54c <fail>

000004a4 <test_23>:
 4a4:	00000213          	li	tp,0
 4a8:	0f0f1137          	lui	sp,0xf0f1
 4ac:	f0f10113          	addi	sp,sp,-241 # f0f0f0f <_end+0xf0edf0f>
 4b0:	00000013          	nop
 4b4:	00000013          	nop
 4b8:	00ff00b7          	lui	ra,0xff0
 4bc:	0ff08093          	addi	ra,ra,255 # ff00ff <_end+0xfed0ff>
 4c0:	0020c733          	xor	a4,ra,sp
 4c4:	00120213          	addi	tp,tp,1 # 1 <_start+0x1>
 4c8:	00200293          	li	t0,2
 4cc:	fc521ee3          	bne	tp,t0,4a8 <test_23+0x4>
 4d0:	0ff013b7          	lui	t2,0xff01
 4d4:	ff038393          	addi	t2,t2,-16 # ff00ff0 <_end+0xfefdff0>
 4d8:	01700193          	li	gp,23
 4dc:	06771863          	bne	a4,t2,54c <fail>

000004e0 <test_24>:
 4e0:	ff0100b7          	lui	ra,0xff010
 4e4:	f0008093          	addi	ra,ra,-256 # ff00ff00 <_end+0xff00cf00>
 4e8:	00104133          	xor	sp,zero,ra
 4ec:	ff0103b7          	lui	t2,0xff010
 4f0:	f0038393          	addi	t2,t2,-256 # ff00ff00 <_end+0xff00cf00>
 4f4:	01800193          	li	gp,24
 4f8:	04711a63          	bne	sp,t2,54c <fail>

000004fc <test_25>:
 4fc:	00ff00b7          	lui	ra,0xff0
 500:	0ff08093          	addi	ra,ra,255 # ff00ff <_end+0xfed0ff>
 504:	0000c133          	xor	sp,ra,zero
 508:	00ff03b7          	lui	t2,0xff0
 50c:	0ff38393          	addi	t2,t2,255 # ff00ff <_end+0xfed0ff>
 510:	01900193          	li	gp,25
 514:	02711c63          	bne	sp,t2,54c <fail>

00000518 <test_26>:
 518:	000040b3          	xor	ra,zero,zero
 51c:	00000393          	li	t2,0
 520:	01a00193          	li	gp,26
 524:	02709463          	bne	ra,t2,54c <fail>

00000528 <test_27>:
 528:	111110b7          	lui	ra,0x11111
 52c:	11108093          	addi	ra,ra,273 # 11111111 <_end+0x1110e111>
 530:	22222137          	lui	sp,0x22222
 534:	22210113          	addi	sp,sp,546 # 22222222 <_end+0x2221f222>
 538:	0020c033          	xor	zero,ra,sp
 53c:	00000393          	li	t2,0
 540:	01b00193          	li	gp,27
 544:	00701463          	bne	zero,t2,54c <fail>
 548:	00301663          	bne	zero,gp,554 <pass>

0000054c <fail>:
 54c:	0ff0000f          	fence
 550:	00100073          	ebreak

00000554 <pass>:
 554:	d01e5537          	lui	a0,0xd01e5
 558:	a5550513          	addi	a0,a0,-1451 # d01e4a55 <_end+0xd01e1a55>
 55c:	00a02023          	sw	a0,0(zero) # 0 <_start>
 560:	0ff0000f          	fence
 564:	00100073          	ebreak
 568:	0000                	unimp
 56a:	0000                	unimp
 56c:	0000                	unimp
 56e:	0000                	unimp
 570:	0000                	unimp
 572:	0000                	unimp
 574:	0000                	unimp
 576:	0000                	unimp
 578:	0000                	unimp
 57a:	0000                	unimp
 57c:	0000                	unimp
 57e:	0000                	unimp
 580:	0000                	unimp
 582:	0000                	unimp

Disassembly of section .text:

00002000 <trap_vector>:
    2000:	0ff0000f          	fence
    2004:	00100073          	ebreak
